

Microchip MPLAB XC8 Assembler V2.31 build 20201012212115 
                                                                                               Wed May 26 16:44:17 2021

Microchip MPLAB XC8 C Compiler v2.31 (Free license) build 20201012212115 Og1 
     1                           	processor	16F15244
     2                           	pagewidth 120
     3                           	opt	flic
     4                           	psect	idataBANK1,global,class=CODE,delta=2,noexec
     5                           	psect	cinit,global,class=CODE,merge=1,delta=2
     6                           	psect	bssBANK0,global,class=BANK0,space=1,delta=1,noexec
     7                           	psect	bssBANK1,global,class=BANK1,space=1,delta=1,noexec
     8                           	psect	dataBANK1,global,class=BANK1,space=1,delta=1,noexec
     9                           	psect	clrtext,global,class=CODE,delta=2
    10                           	psect	cstackCOMMON,global,class=COMMON,space=1,delta=1,noexec
    11                           	psect	cstackBANK0,global,class=BANK0,space=1,delta=1,noexec
    12                           	psect	maintext,global,class=CODE,merge=1,split=1,delta=2
    13                           	psect	text1,local,class=CODE,merge=1,delta=2
    14                           	psect	text2,local,class=CODE,merge=1,delta=2
    15                           	psect	text3,local,class=CODE,merge=1,delta=2
    16                           	psect	text4,local,class=CODE,merge=1,delta=2,group=1
    17                           	psect	text5,local,class=CODE,merge=1,delta=2,group=1
    18                           	psect	text6,local,class=CODE,merge=1,delta=2,group=1
    19                           	psect	text7,local,class=CODE,merge=1,delta=2,group=1
    20                           	psect	text8,local,class=CODE,merge=1,delta=2,group=1
    21                           	psect	text9,local,class=CODE,merge=1,delta=2
    22                           	psect	text10,local,class=CODE,merge=1,delta=2
    23                           	psect	text11,local,class=CODE,merge=1,delta=2
    24                           	psect	text12,local,class=CODE,merge=1,delta=2
    25                           	psect	text13,local,class=CODE,merge=1,delta=2
    26                           	psect	text14,local,class=CODE,merge=1,delta=2
    27                           	psect	text15,local,class=CODE,merge=1,delta=2
    28                           	psect	text16,local,class=CODE,merge=1,delta=2
    29                           	psect	text17,local,class=CODE,merge=1,delta=2
    30                           	psect	text18,local,class=CODE,merge=1,delta=2
    31                           	psect	text19,local,class=CODE,merge=1,delta=2
    32                           	psect	text20,local,class=CODE,merge=1,delta=2
    33                           	psect	config,global,abs,ovrld,class=CONFIG,space=4,delta=2,noexec
    34                           	dabs	1,0x7E,2
    35  0000                     
    36                           ; Version 2.30
    37                           ; Generated 15/09/2020 GMT
    38                           ; 
    39                           ; Copyright © 2020, Microchip Technology Inc. and its subsidiaries ("Microchip")
    40                           ; All rights reserved.
    41                           ; 
    42                           ; This software is developed by Microchip Technology Inc. and its subsidiaries ("Microch
      +                          ip").
    43                           ; 
    44                           ; Redistribution and use in source and binary forms, with or without modification, are
    45                           ; permitted provided that the following conditions are met:
    46                           ; 
    47                           ;     1. Redistributions of source code must retain the above copyright notice, this lis
      +                          t of
    48                           ;        conditions and the following disclaimer.
    49                           ; 
    50                           ;     2. Redistributions in binary form must reproduce the above copyright notice, this 
      +                          list
    51                           ;        of conditions and the following disclaimer in the documentation and/or other
    52                           ;        materials provided with the distribution. Publication is not required when
    53                           ;        this file is used in an embedded application.
    54                           ; 
    55                           ;     3. Microchip's name may not be used to endorse or promote products derived from th
      +                          is
    56                           ;        software without specific prior written permission.
    57                           ; 
    58                           ; THIS SOFTWARE IS PROVIDED BY MICROCHIP "AS IS" AND ANY EXPRESS OR IMPLIED WARRANTIES,
    59                           ; INCLUDING, BUT NOT LIMITED TO, THE IMPLIED WARRANTIES OF MERCHANTABILITY AND FITNESS F
      +                          OR
    60                           ; PURPOSE ARE DISCLAIMED.  IN NO EVENT SHALL MICROCHIP BE LIABLE FOR ANY DIRECT, INDIREC
      +                          T,
    61                           ; INCIDENTAL, SPECIAL, EXEMPLARY, OR CONSEQUENTIAL DAMAGES (INCLUDING BUT NOT LIMITED TO
    62                           ; PROCUREMENT OF SUBSTITUTE GOODS OR SERVICES; LOSS OF USE, DATA OR PROFITS; OR BUSINESS
    63                           ; INTERRUPTION) HOWSOEVER CAUSED AND ON ANY THEORY OF LIABILITY, WHETHER IN CONTRACT, ST
      +                          RICT
    64                           ; LIABILITY, OR TORT (INCLUDING NEGLIGENCE OR OTHERWISE) ARISING IN ANY WAY OUT OF THE U
      +                          SE OF
    65                           ; THIS SOFTWARE, EVEN IF ADVISED OF THE POSSIBILITY OF SUCH DAMAGE.
    66                           ; 
    67                           ; 
    68                           ; Code-generator required, PIC16F15244 Definitions
    69                           ; 
    70                           ; SFR Addresses
    71  0000                     	;# 
    72  0001                     	;# 
    73  0002                     	;# 
    74  0003                     	;# 
    75  0004                     	;# 
    76  0005                     	;# 
    77  0006                     	;# 
    78  0007                     	;# 
    79  0008                     	;# 
    80  0009                     	;# 
    81  000A                     	;# 
    82  000B                     	;# 
    83  000C                     	;# 
    84  000D                     	;# 
    85  000E                     	;# 
    86  0012                     	;# 
    87  0013                     	;# 
    88  0014                     	;# 
    89  0018                     	;# 
    90  0019                     	;# 
    91  001A                     	;# 
    92  009A                     	;# 
    93  009B                     	;# 
    94  009B                     	;# 
    95  009C                     	;# 
    96  009D                     	;# 
    97  009E                     	;# 
    98  009F                     	;# 
    99  010C                     	;# 
   100  010D                     	;# 
   101  0119                     	;# 
   102  011A                     	;# 
   103  011B                     	;# 
   104  011B                     	;# 
   105  011C                     	;# 
   106  011D                     	;# 
   107  011E                     	;# 
   108  011F                     	;# 
   109  018C                     	;# 
   110  018D                     	;# 
   111  018E                     	;# 
   112  018F                     	;# 
   113  0190                     	;# 
   114  0191                     	;# 
   115  0192                     	;# 
   116  020C                     	;# 
   117  020D                     	;# 
   118  020E                     	;# 
   119  020E                     	;# 
   120  020F                     	;# 
   121  020F                     	;# 
   122  0210                     	;# 
   123  0210                     	;# 
   124  0211                     	;# 
   125  0211                     	;# 
   126  028C                     	;# 
   127  028C                     	;# 
   128  028D                     	;# 
   129  028D                     	;# 
   130  028E                     	;# 
   131  028F                     	;# 
   132  0290                     	;# 
   133  0291                     	;# 
   134  030C                     	;# 
   135  030C                     	;# 
   136  030D                     	;# 
   137  030E                     	;# 
   138  030F                     	;# 
   139  0310                     	;# 
   140  0310                     	;# 
   141  0311                     	;# 
   142  0312                     	;# 
   143  0313                     	;# 
   144  0314                     	;# 
   145  0314                     	;# 
   146  0315                     	;# 
   147  0316                     	;# 
   148  0318                     	;# 
   149  0318                     	;# 
   150  0319                     	;# 
   151  031A                     	;# 
   152  059C                     	;# 
   153  059C                     	;# 
   154  059D                     	;# 
   155  059D                     	;# 
   156  059E                     	;# 
   157  059F                     	;# 
   158  070C                     	;# 
   159  070D                     	;# 
   160  070E                     	;# 
   161  0716                     	;# 
   162  0717                     	;# 
   163  0718                     	;# 
   164  080C                     	;# 
   165  0811                     	;# 
   166  0813                     	;# 
   167  0814                     	;# 
   168  081A                     	;# 
   169  081A                     	;# 
   170  081B                     	;# 
   171  081C                     	;# 
   172  081C                     	;# 
   173  081D                     	;# 
   174  081E                     	;# 
   175  081F                     	;# 
   176  088E                     	;# 
   177  0890                     	;# 
   178  0891                     	;# 
   179  0892                     	;# 
   180  0893                     	;# 
   181  090C                     	;# 
   182  1E8F                     	;# 
   183  1E90                     	;# 
   184  1E91                     	;# 
   185  1E92                     	;# 
   186  1E93                     	;# 
   187  1E9C                     	;# 
   188  1EA1                     	;# 
   189  1EA2                     	;# 
   190  1EC3                     	;# 
   191  1EC5                     	;# 
   192  1EC6                     	;# 
   193  1EC7                     	;# 
   194  1ECB                     	;# 
   195  1ECB                     	;# 
   196  1ECB                     	;# 
   197  1ECC                     	;# 
   198  1ECC                     	;# 
   199  1ECC                     	;# 
   200  1F10                     	;# 
   201  1F11                     	;# 
   202  1F12                     	;# 
   203  1F14                     	;# 
   204  1F15                     	;# 
   205  1F1C                     	;# 
   206  1F1D                     	;# 
   207  1F1E                     	;# 
   208  1F1F                     	;# 
   209  1F20                     	;# 
   210  1F21                     	;# 
   211  1F22                     	;# 
   212  1F23                     	;# 
   213  1F24                     	;# 
   214  1F25                     	;# 
   215  1F26                     	;# 
   216  1F27                     	;# 
   217  1F38                     	;# 
   218  1F39                     	;# 
   219  1F3A                     	;# 
   220  1F3B                     	;# 
   221  1F3C                     	;# 
   222  1F3D                     	;# 
   223  1F3E                     	;# 
   224  1F3F                     	;# 
   225  1F43                     	;# 
   226  1F44                     	;# 
   227  1F45                     	;# 
   228  1F46                     	;# 
   229  1F47                     	;# 
   230  1F48                     	;# 
   231  1F49                     	;# 
   232  1F4A                     	;# 
   233  1F4E                     	;# 
   234  1F4F                     	;# 
   235  1F50                     	;# 
   236  1F51                     	;# 
   237  1F52                     	;# 
   238  1F53                     	;# 
   239  1F54                     	;# 
   240  1F55                     	;# 
   241  1FE4                     	;# 
   242  1FE5                     	;# 
   243  1FE6                     	;# 
   244  1FE7                     	;# 
   245  1FE8                     	;# 
   246  1FE8                     	;# 
   247  1FE9                     	;# 
   248  1FEA                     	;# 
   249  1FEB                     	;# 
   250  1FED                     	;# 
   251  1FEE                     	;# 
   252  1FEF                     	;# 
   253                           
   254                           	psect	idataBANK1
   255  0EAD                     __pidataBANK1:
   256                           
   257                           ;initializer for _dutyCycleDerecha
   258  0EAD  34E5               	retlw	229
   259  0EAE  3401               	retlw	1
   260                           
   261                           ;initializer for _dutyCycleIzquierda
   262  0EAF  34F4               	retlw	244
   263  0EB0  3401               	retlw	1
   264  0018                     _LATAbits	set	24
   265  0019                     _LATBbits	set	25
   266  000D                     _PORTBbits	set	13
   267  000E                     _PORTCbits	set	14
   268  001A                     _LATCbits	set	26
   269  0014                     _TRISC	set	20
   270  0013                     _TRISB	set	19
   271  0012                     _TRISA	set	18
   272  001A                     _LATC	set	26
   273  0019                     _LATB	set	25
   274  0018                     _LATA	set	24
   275  009F                     _TRISB7	set	159
   276  009C                     _TRISB4	set	156
   277  00A6                     _TRISC6	set	166
   278  00A7                     _TRISC7	set	167
   279  00A5                     _TRISC5	set	165
   280  00A4                     _TRISC4	set	164
   281  00A3                     _TRISC3	set	163
   282  00A1                     _TRISC1	set	161
   283  00A0                     _TRISC0	set	160
   284  009D                     _TRISB5	set	157
   285  009E                     _TRISB6	set	158
   286  0095                     _TRISA5	set	149
   287  0094                     _TRISA4	set	148
   288  0092                     _TRISA2	set	146
   289  0091                     _TRISA1	set	145
   290  020E                     _T1CON	set	526
   291  020C                     _TMR1L	set	524
   292  020D                     _TMR1H	set	525
   293  0211                     _T1CLK	set	529
   294  0210                     _T1GATE	set	528
   295  020F                     _T1GCON	set	527
   296  1070                     _TMR1ON	set	4208
   297  028E                     _T2CON	set	654
   298  028C                     _T2TMR	set	652
   299  028D                     _T2PR	set	653
   300  0291                     _T2RST	set	657
   301  028F                     _T2HLT	set	655
   302  0290                     _T2CLKCON	set	656
   303  0318                     _PWM4DCL	set	792
   304  0319                     _PWM4DCH	set	793
   305  031A                     _PWM4CON	set	794
   306  0314                     _PWM3DCL	set	788
   307  0315                     _PWM3DCH	set	789
   308  0316                     _PWM3CON	set	790
   309  070D                     _PIR1bits	set	1805
   310  386D                     _TMR1IF	set	14445
   311  0892                     _OSCTUNE	set	2194
   312  0893                     _OSCFRQ	set	2195
   313  0891                     _OSCEN	set	2193
   314  1F23                     _RC3PPS	set	7971
   315  1F11                     _RA1PPS	set	7953
   316  1F52                     _INLVLC	set	8018
   317  1F47                     _INLVLB	set	8007
   318  1F3C                     _INLVLA	set	7996
   319  1F51                     _SLRCONC	set	8017
   320  1F46                     _SLRCONB	set	8006
   321  1F3B                     _SLRCONA	set	7995
   322  1F50                     _ODCONC	set	8016
   323  1F45                     _ODCONB	set	8005
   324  1F3A                     _ODCONA	set	7994
   325  1F4F                     _WPUC	set	8015
   326  1F39                     _WPUA	set	7993
   327  1F44                     _WPUB	set	8004
   328  1F38                     _ANSELA	set	7992
   329  1F43                     _ANSELB	set	8003
   330  1F4E                     _ANSELC	set	8014
   331                           
   332                           	psect	cinit
   333  07E0                     start_initialization:	
   334                           ; #config settings
   335                           
   336  07E0                     __initialization:
   337                           
   338                           ; Initialize objects allocated to BANK1
   339  07E0  0141               	movlb	1	; select bank1
   340  07E1  318E  26AD  3187   	fcall	__pidataBANK1	;fetch initializer
   341  07E4  00A4               	movwf	__pdataBANK1& (0+127)
   342  07E5  318E  26AE  3187   	fcall	__pidataBANK1+1	;fetch initializer
   343  07E8  00A5               	movwf	(__pdataBANK1+1)& (0+127)
   344  07E9  318E  26AF  3187   	fcall	__pidataBANK1+2	;fetch initializer
   345  07EC  00A6               	movwf	(__pdataBANK1+2)& (0+127)
   346  07ED  318E  26B0  3187   	fcall	__pidataBANK1+3	;fetch initializer
   347  07F0  00A7               	movwf	(__pdataBANK1+3)& (0+127)
   348                           
   349                           ; Clear objects allocated to BANK0
   350  07F1  3063               	movlw	low __pbssBANK0
   351  07F2  0084               	movwf	4
   352  07F3  3000               	movlw	high __pbssBANK0
   353  07F4  0085               	movwf	5
   354  07F5  300D               	movlw	13
   355  07F6  318E  26B6  3187   	fcall	clear_ram0
   356                           
   357                           ; Clear objects allocated to BANK1
   358  07F9  01A0               	clrf	__pbssBANK1& (0+127)
   359  07FA  01A1               	clrf	(__pbssBANK1+1)& (0+127)
   360  07FB  01A2               	clrf	(__pbssBANK1+2)& (0+127)
   361  07FC  01A3               	clrf	(__pbssBANK1+3)& (0+127)
   362  07FD                     end_of_initialization:	
   363                           ;End of C runtime variable initialization code
   364                           
   365  07FD                     __end_of__initialization:
   366  07FD  0140               	movlb	0
   367  07FE  3180  281C         	ljmp	_main	;jump to C main() function
   368                           
   369                           	psect	bssBANK0
   370  0063                     __pbssBANK0:
   371  0063                     _conteo_izq:
   372  0063                     	ds	2
   373  0065                     _conteo_cen:
   374  0065                     	ds	2
   375  0067                     _distanciaderecha:
   376  0067                     	ds	2
   377  0069                     _distanciaizquierda:
   378  0069                     	ds	2
   379  006B                     _distanciafrontal:
   380  006B                     	ds	2
   381  006D                     _sder:
   382  006D                     	ds	1
   383  006E                     _sizq:
   384  006E                     	ds	1
   385  006F                     _scen:
   386  006F                     	ds	1
   387                           
   388                           	psect	bssBANK1
   389  00A0                     __pbssBANK1:
   390  00A0                     _timer1ReloadVal:
   391  00A0                     	ds	2
   392  00A2                     _conteo_der:
   393  00A2                     	ds	2
   394                           
   395                           	psect	dataBANK1
   396  00A4                     __pdataBANK1:
   397  00A4                     _dutyCycleDerecha:
   398  00A4                     	ds	2
   399  00A6                     _dutyCycleIzquierda:
   400  00A6                     	ds	2
   401                           
   402                           	psect	clrtext
   403  0EB6                     clear_ram0:	
   404                           ;	Called with FSR0 containing the base address, and
   405                           ;	WREG with the size to clear
   406                           
   407  0EB6  0064               	clrwdt	;clear the watchdog before getting into this loop
   408  0EB7                     clrloop0:
   409  0EB7  0180               	clrf	0	;clear RAM location pointed to by FSR
   410  0EB8  3101               	addfsr 0,1
   411  0EB9  0B89               	decfsz	9,f	;Have we reached the end of clearing yet?
   412  0EBA  2EB7               	goto	clrloop0	;have we reached the end yet?
   413  0EBB  3400               	retlw	0	;all done for this memory range, return
   414                           
   415                           	psect	cstackCOMMON
   416  0070                     __pcstackCOMMON:
   417  0070                     ?_InicializacionPuertos:
   418  0070                     ??_InicializacionPuertos:	
   419                           ; 1 bytes @ 0x0
   420                           
   421  0070                     ?_OSCILLATOR_Initialize:	
   422                           ; 1 bytes @ 0x0
   423                           
   424  0070                     ??_OSCILLATOR_Initialize:	
   425                           ; 1 bytes @ 0x0
   426                           
   427  0070                     ?_sensor_centro:	
   428                           ; 1 bytes @ 0x0
   429                           
   430  0070                     ?_sensor_izquierdo:	
   431                           ; 1 bytes @ 0x0
   432                           
   433  0070                     ?_sensor_derecho:	
   434                           ; 1 bytes @ 0x0
   435                           
   436  0070                     ?_InicializacionTimer2:	
   437                           ; 1 bytes @ 0x0
   438                           
   439  0070                     ??_InicializacionTimer2:	
   440                           ; 1 bytes @ 0x0
   441                           
   442  0070                     ?_InicializacionPWM3:	
   443                           ; 1 bytes @ 0x0
   444                           
   445  0070                     ??_InicializacionPWM3:	
   446                           ; 1 bytes @ 0x0
   447                           
   448  0070                     ?_InicializacionPWM4:	
   449                           ; 1 bytes @ 0x0
   450                           
   451  0070                     ??_InicializacionPWM4:	
   452                           ; 1 bytes @ 0x0
   453                           
   454  0070                     ?_PWM3_LoadDutyValue:	
   455                           ; 1 bytes @ 0x0
   456                           
   457  0070                     ?_PWM4_LoadDutyValue:	
   458                           ; 1 bytes @ 0x0
   459                           
   460  0070                     ?_avanzar:	
   461                           ; 1 bytes @ 0x0
   462                           
   463  0070                     ?_giro_derecha:	
   464                           ; 1 bytes @ 0x0
   465                           
   466  0070                     ?_giro_izquierda:	
   467                           ; 1 bytes @ 0x0
   468                           
   469  0070                     ?_detenerse:	
   470                           ; 1 bytes @ 0x0
   471                           
   472  0070                     ??_detenerse:	
   473                           ; 1 bytes @ 0x0
   474                           
   475  0070                     ?_movimientos:	
   476                           ; 1 bytes @ 0x0
   477                           
   478  0070                     ?_main:	
   479                           ; 1 bytes @ 0x0
   480                           
   481  0070                     ?__Umul8_16:	
   482                           ; 1 bytes @ 0x0
   483                           
   484  0070                     ?___xxtofl:	
   485                           ; 2 bytes @ 0x0
   486                           
   487  0070                     __Umul8_16@multiplicand:	
   488                           ; 4 bytes @ 0x0
   489                           
   490  0070                     PWM3_LoadDutyValue@dutyValue:	
   491                           ; 1 bytes @ 0x0
   492                           
   493  0070                     PWM4_LoadDutyValue@dutyValue:	
   494                           ; 2 bytes @ 0x0
   495                           
   496  0070                     ___xxtofl@val:	
   497                           ; 2 bytes @ 0x0
   498                           
   499                           
   500                           ; 4 bytes @ 0x0
   501  0070                     	ds	2
   502  0072                     ??__Umul8_16:
   503  0072                     ??_PWM3_LoadDutyValue:	
   504                           ; 1 bytes @ 0x2
   505                           
   506  0072                     ??_PWM4_LoadDutyValue:	
   507                           ; 1 bytes @ 0x2
   508                           
   509                           
   510                           ; 1 bytes @ 0x2
   511  0072                     	ds	2
   512  0074                     ??_avanzar:
   513  0074                     ??_giro_derecha:	
   514                           ; 1 bytes @ 0x4
   515                           
   516  0074                     ??_giro_izquierda:	
   517                           ; 1 bytes @ 0x4
   518                           
   519  0074                     ??___xxtofl:	
   520                           ; 1 bytes @ 0x4
   521                           
   522  0074                     __Umul8_16@product:	
   523                           ; 1 bytes @ 0x4
   524                           
   525                           
   526                           ; 2 bytes @ 0x4
   527  0074                     	ds	1
   528  0075                     avanzar@dutyCycleIzquierda:
   529                           
   530                           ; 2 bytes @ 0x5
   531  0075                     	ds	1
   532  0076                     __Umul8_16@word_mpld:
   533                           
   534                           ; 2 bytes @ 0x6
   535  0076                     	ds	1
   536  0077                     avanzar@dutyCycleDerecha:
   537                           
   538                           ; 2 bytes @ 0x7
   539  0077                     	ds	1
   540  0078                     __Umul8_16@multiplier:
   541  0078                     ___xxtofl@sign:	
   542                           ; 1 bytes @ 0x8
   543                           
   544                           
   545                           ; 1 bytes @ 0x8
   546  0078                     	ds	1
   547  0079                     ??_movimientos:
   548  0079                     ___xxtofl@exp:	
   549                           ; 1 bytes @ 0x9
   550                           
   551                           
   552                           ; 1 bytes @ 0x9
   553  0079                     	ds	1
   554  007A                     ___xxtofl@arg:
   555                           
   556                           ; 4 bytes @ 0xA
   557  007A                     	ds	4
   558                           
   559                           	psect	cstackBANK0
   560  0020                     __pcstackBANK0:
   561  0020                     ?___flmul:
   562  0020                     ___flmul@b:	
   563                           ; 4 bytes @ 0x0
   564                           
   565                           
   566                           ; 4 bytes @ 0x0
   567  0020                     	ds	4
   568  0024                     ___flmul@a:
   569                           
   570                           ; 4 bytes @ 0x4
   571  0024                     	ds	4
   572  0028                     ??___flmul:
   573                           
   574                           ; 1 bytes @ 0x8
   575  0028                     	ds	5
   576  002D                     ___flmul@sign:
   577                           
   578                           ; 1 bytes @ 0xD
   579  002D                     	ds	1
   580  002E                     ___flmul@grs:
   581                           
   582                           ; 4 bytes @ 0xE
   583  002E                     	ds	4
   584  0032                     ___flmul@aexp:
   585                           
   586                           ; 1 bytes @ 0x12
   587  0032                     	ds	1
   588  0033                     ___flmul@bexp:
   589                           
   590                           ; 1 bytes @ 0x13
   591  0033                     	ds	1
   592  0034                     ___flmul@prod:
   593                           
   594                           ; 4 bytes @ 0x14
   595  0034                     	ds	4
   596  0038                     ___flmul@temp:
   597                           
   598                           ; 2 bytes @ 0x18
   599  0038                     	ds	2
   600  003A                     ?___fldiv:
   601  003A                     ___fldiv@a:	
   602                           ; 4 bytes @ 0x1A
   603                           
   604                           
   605                           ; 4 bytes @ 0x1A
   606  003A                     	ds	4
   607  003E                     ___fldiv@b:
   608                           
   609                           ; 4 bytes @ 0x1E
   610  003E                     	ds	4
   611  0042                     ??___fldiv:
   612                           
   613                           ; 1 bytes @ 0x22
   614  0042                     	ds	5
   615  0047                     ___fldiv@rem:
   616                           
   617                           ; 4 bytes @ 0x27
   618  0047                     	ds	4
   619  004B                     ___fldiv@sign:
   620                           
   621                           ; 1 bytes @ 0x2B
   622  004B                     	ds	1
   623  004C                     ___fldiv@new_exp:
   624                           
   625                           ; 2 bytes @ 0x2C
   626  004C                     	ds	2
   627  004E                     ___fldiv@grs:
   628                           
   629                           ; 4 bytes @ 0x2E
   630  004E                     	ds	4
   631  0052                     ___fldiv@bexp:
   632                           
   633                           ; 1 bytes @ 0x32
   634  0052                     	ds	1
   635  0053                     ___fldiv@aexp:
   636                           
   637                           ; 1 bytes @ 0x33
   638  0053                     	ds	1
   639  0054                     ?___fltol:
   640  0054                     ___fltol@f1:	
   641                           ; 4 bytes @ 0x34
   642                           
   643                           
   644                           ; 4 bytes @ 0x34
   645  0054                     	ds	4
   646  0058                     ??___fltol:
   647                           
   648                           ; 1 bytes @ 0x38
   649  0058                     	ds	5
   650  005D                     ___fltol@sign1:
   651                           
   652                           ; 1 bytes @ 0x3D
   653  005D                     	ds	1
   654  005E                     ___fltol@exp1:
   655                           
   656                           ; 1 bytes @ 0x3E
   657  005E                     	ds	1
   658  005F                     ??_sensor_centro:
   659  005F                     ??_sensor_izquierdo:	
   660                           ; 1 bytes @ 0x3F
   661                           
   662  005F                     ??_sensor_derecho:	
   663                           ; 1 bytes @ 0x3F
   664                           
   665                           
   666                           ; 1 bytes @ 0x3F
   667  005F                     	ds	3
   668  0062                     ??_main:
   669                           
   670                           ; 1 bytes @ 0x42
   671  0062                     	ds	1
   672                           
   673                           	psect	maintext
   674  001C                     __pmaintext:	
   675 ;;
   676 ;;Main: autosize = 0, tempsize = 1, incstack = 0, save=0
   677 ;;
   678 ;; *************** function _main *****************
   679 ;; Defined at:
   680 ;;		line 431 in file "principal.c"
   681 ;; Parameters:    Size  Location     Type
   682 ;;		None
   683 ;; Auto vars:     Size  Location     Type
   684 ;;		None
   685 ;; Return value:  Size  Location     Type
   686 ;;                  1    wreg      void 
   687 ;; Registers used:
   688 ;;		wreg, status,2, status,0, pclath, cstack
   689 ;; Tracked objects:
   690 ;;		On entry : B3F/0
   691 ;;		On exit  : 0/0
   692 ;;		Unchanged: 0/0
   693 ;; Data sizes:     COMMON   BANK0   BANK1   BANK2   BANK3   BANK4   BANK5   BANK6
   694 ;;      Params:         0       0       0       0       0       0       0       0
   695 ;;      Locals:         0       0       0       0       0       0       0       0
   696 ;;      Temps:          0       1       0       0       0       0       0       0
   697 ;;      Totals:         0       1       0       0       0       0       0       0
   698 ;;Total ram usage:        1 bytes
   699 ;; Hardware stack levels required when called:    3
   700 ;; This function calls:
   701 ;;		_InicializacionPWM3
   702 ;;		_InicializacionPWM4
   703 ;;		_InicializacionPuertos
   704 ;;		_InicializacionTimer2
   705 ;;		_OSCILLATOR_Initialize
   706 ;;		_movimientos
   707 ;;		_sensor_centro
   708 ;;		_sensor_derecho
   709 ;;		_sensor_izquierdo
   710 ;; This function is called by:
   711 ;;		Startup code after reset
   712 ;; This function uses a non-reentrant model
   713 ;;
   714                           
   715                           
   716                           ;psect for function _main
   717  001C                     _main:
   718  001C                     l2125:	
   719                           ;incstack = 0
   720                           ; Regs used in _main: [wreg+status,2+status,0+pclath+cstack]
   721                           
   722                           
   723                           ;principal.c: 433:     InicializacionPuertos();
   724  001C  318F  2754  3180   	fcall	_InicializacionPuertos
   725  001F                     l2127:
   726                           
   727                           ;principal.c: 434:     OSCILLATOR_Initialize();
   728  001F  318E  26B1  3180   	fcall	_OSCILLATOR_Initialize
   729  0022                     l2129:
   730                           
   731                           ;principal.c: 435:     InicializacionTimer2();
   732  0022  318E  26D5  3180   	fcall	_InicializacionTimer2
   733  0025                     l2131:
   734                           
   735                           ;principal.c: 436:     InicializacionPWM3();
   736  0025  318E  26BC  3180   	fcall	_InicializacionPWM3
   737  0028                     l2133:
   738                           
   739                           ;principal.c: 437:     InicializacionPWM4();
   740  0028  318E  26C4  3180   	fcall	_InicializacionPWM4
   741  002B                     l2135:
   742                           
   743                           ;principal.c: 439:     {;principal.c: 440:         sensor_centro();
   744  002B  3181  2166  3180   	fcall	_sensor_centro
   745                           
   746                           ;principal.c: 441:         _delay((unsigned long)((100)*(1000000/4000.0)));
   747  002E  3021               	movlw	33
   748  002F  0140               	movlb	0	; select bank0
   749  0030  00E2               	movwf	??_main
   750  0031  3076               	movlw	118
   751  0032                     u2597:
   752  0032  0B89               	decfsz	9,f
   753  0033  2832               	goto	u2597
   754  0034  0BE2               	decfsz	??_main,f
   755  0035  2832               	goto	u2597
   756  0036  0000               	nop
   757  0037                     l2137:
   758                           
   759                           ;principal.c: 442:         sensor_izquierdo();
   760  0037  3181  21FA  3180   	fcall	_sensor_izquierdo
   761  003A                     l2139:
   762                           
   763                           ;principal.c: 443:         _delay((unsigned long)((100)*(1000000/4000.0)));
   764  003A  3021               	movlw	33
   765  003B  0140               	movlb	0	; select bank0
   766  003C  00E2               	movwf	??_main
   767  003D  3076               	movlw	118
   768  003E                     u2607:
   769  003E  0B89               	decfsz	9,f
   770  003F  283E               	goto	u2607
   771  0040  0BE2               	decfsz	??_main,f
   772  0041  283E               	goto	u2607
   773  0042  0000               	nop
   774                           
   775                           ;principal.c: 444:         sensor_derecho();
   776  0043  3182  228E  3180   	fcall	_sensor_derecho
   777  0046                     l2141:
   778                           
   779                           ;principal.c: 445:         _delay((unsigned long)((100)*(1000000/4000.0)));
   780  0046  3021               	movlw	33
   781  0047  0140               	movlb	0	; select bank0
   782  0048  00E2               	movwf	??_main
   783  0049  3076               	movlw	118
   784  004A                     u2617:
   785  004A  0B89               	decfsz	9,f
   786  004B  284A               	goto	u2617
   787  004C  0BE2               	decfsz	??_main,f
   788  004D  284A               	goto	u2617
   789  004E  0000               	nop
   790  004F                     l2143:
   791                           
   792                           ;principal.c: 446:         movimientos();
   793  004F  3180  20D8  3180   	fcall	_movimientos
   794  0052  282B               	goto	l2135
   795  0053  3180  2802         	ljmp	start
   796  0055                     __end_of_main:
   797                           
   798                           	psect	text1
   799  01FA                     __ptext1:	
   800 ;; *************** function _sensor_izquierdo *****************
   801 ;; Defined at:
   802 ;;		line 206 in file "principal.c"
   803 ;; Parameters:    Size  Location     Type
   804 ;;		None
   805 ;; Auto vars:     Size  Location     Type
   806 ;;		None
   807 ;; Return value:  Size  Location     Type
   808 ;;                  1    wreg      void 
   809 ;; Registers used:
   810 ;;		wreg, status,2, status,0, pclath, cstack
   811 ;; Tracked objects:
   812 ;;		On entry : 0/0
   813 ;;		On exit  : 0/0
   814 ;;		Unchanged: 0/0
   815 ;; Data sizes:     COMMON   BANK0   BANK1   BANK2   BANK3   BANK4   BANK5   BANK6
   816 ;;      Params:         0       0       0       0       0       0       0       0
   817 ;;      Locals:         0       0       0       0       0       0       0       0
   818 ;;      Temps:          0       3       0       0       0       0       0       0
   819 ;;      Totals:         0       3       0       0       0       0       0       0
   820 ;;Total ram usage:        3 bytes
   821 ;; Hardware stack levels used:    1
   822 ;; Hardware stack levels required when called:    2
   823 ;; This function calls:
   824 ;;		___fldiv
   825 ;;		___flmul
   826 ;;		___fltol
   827 ;;		___xxtofl
   828 ;; This function is called by:
   829 ;;		_main
   830 ;; This function uses a non-reentrant model
   831 ;;
   832                           
   833                           
   834                           ;psect for function _sensor_izquierdo
   835  01FA                     _sensor_izquierdo:
   836  01FA                     l2005:	
   837                           ;incstack = 0
   838                           ; Regs used in _sensor_izquierdo: [wreg+status,2+status,0+pclath+cstack]
   839                           
   840                           
   841                           ;principal.c: 208:     TMR1H = 0x00;
   842  01FA  0144               	movlb	4	; select bank4
   843  01FB  018D               	clrf	13	;volatile
   844                           
   845                           ;principal.c: 209:     TMR1L = 0x00;
   846  01FC  018C               	clrf	12	;volatile
   847                           
   848                           ;principal.c: 210:     conteo_izq = 0;
   849  01FD  0140               	movlb	0	; select bank0
   850  01FE  01E3               	clrf	_conteo_izq
   851  01FF  01E4               	clrf	_conteo_izq+1
   852  0200                     l2007:
   853  0200  141A               	bsf	26,0	;volatile
   854  0201                     l2009:
   855                           
   856                           ;principal.c: 212:     _delay((unsigned long)((10)*(1000000/4000000.0)));
   857  0201  3200               	nop2	;2 cycle nop
   858  0202                     l2011:
   859  0202  0140               	movlb	0	; select bank0
   860  0203  101A               	bcf	26,0	;volatile
   861  0204                     l195:
   862  0204  1F8D               	btfss	13,7	;volatile
   863  0205  2A07               	goto	u2251
   864  0206  2A08               	goto	u2250
   865  0207                     u2251:
   866  0207  2A04               	goto	l195
   867  0208                     u2250:
   868  0208                     l197:
   869                           
   870                           ;principal.c: 215:     TMR1ON = 1;
   871  0208  0144               	movlb	4	; select bank4
   872  0209  140E               	bsf	14,0	;volatile
   873  020A                     l198:	
   874                           ;principal.c: 216:     while (PORTBbits.RB7 && !TMR1IF);
   875                           
   876  020A  0140               	movlb	0	; select bank0
   877  020B  1F8D               	btfss	13,7	;volatile
   878  020C  2A0E               	goto	u2261
   879  020D  2A0F               	goto	u2260
   880  020E                     u2261:
   881  020E  2A14               	goto	l202
   882  020F                     u2260:
   883  020F                     l2013:
   884  020F  014E               	movlb	14	; select bank14
   885  0210  1E8D               	btfss	13,5	;volatile
   886  0211  2A13               	goto	u2271
   887  0212  2A14               	goto	u2270
   888  0213                     u2271:
   889  0213  2A0A               	goto	l198
   890  0214                     u2270:
   891  0214                     l202:
   892                           
   893                           ;principal.c: 217:     TMR1ON = 0;
   894  0214  0144               	movlb	4	; select bank4
   895  0215  100E               	bcf	14,0	;volatile
   896                           
   897                           ;principal.c: 218:     if(!TMR1IF)
   898  0216  014E               	movlb	14	; select bank14
   899  0217  1A8D               	btfsc	13,5	;volatile
   900  0218  2A1A               	goto	u2281
   901  0219  2A1B               	goto	u2280
   902  021A                     u2281:
   903  021A  2A31               	goto	l2017
   904  021B                     u2280:
   905  021B                     l2015:
   906                           
   907                           ;principal.c: 219:     {;principal.c: 220:         conteo_izq |= TMR1H << 8;
   908  021B  0144               	movlb	4	; select bank4
   909  021C  080D               	movf	13,w	;volatile
   910  021D  0140               	movlb	0	; select bank0
   911  021E  00DF               	movwf	??_sensor_izquierdo
   912  021F  01E0               	clrf	??_sensor_izquierdo+1
   913  0220  085F               	movf	??_sensor_izquierdo,w
   914  0221  00E0               	movwf	??_sensor_izquierdo+1
   915  0222  01DF               	clrf	??_sensor_izquierdo
   916  0223  085F               	movf	??_sensor_izquierdo,w
   917  0224  04E3               	iorwf	_conteo_izq,f
   918  0225  0860               	movf	??_sensor_izquierdo+1,w
   919  0226  04E4               	iorwf	_conteo_izq+1,f
   920                           
   921                           ;principal.c: 221:         conteo_izq |= TMR1L;
   922  0227  0144               	movlb	4	; select bank4
   923  0228  080C               	movf	12,w	;volatile
   924  0229  0140               	movlb	0	; select bank0
   925  022A  00DF               	movwf	??_sensor_izquierdo
   926  022B  01E0               	clrf	??_sensor_izquierdo+1
   927  022C  085F               	movf	??_sensor_izquierdo,w
   928  022D  04E3               	iorwf	_conteo_izq,f
   929  022E  0860               	movf	??_sensor_izquierdo+1,w
   930  022F  04E4               	iorwf	_conteo_izq+1,f
   931                           
   932                           ;principal.c: 222:     }
   933  0230  2A36               	goto	l2021
   934  0231                     l2017:
   935                           
   936                           ;principal.c: 224:     {;principal.c: 225:         conteo_izq = 0;
   937  0231  0140               	movlb	0	; select bank0
   938  0232  01E3               	clrf	_conteo_izq
   939  0233  01E4               	clrf	_conteo_izq+1
   940  0234                     l2019:
   941                           
   942                           ;principal.c: 226:         TMR1IF = 0;
   943  0234  014E               	movlb	14	; select bank14
   944  0235  128D               	bcf	13,5	;volatile
   945  0236                     l2021:
   946                           
   947                           ;principal.c: 228:     distanciaizquierda = (conteo_izq * 0.8) / 48;
   948  0236  0140               	movlb	0	; select bank0
   949  0237  0863               	movf	_conteo_izq,w
   950  0238  00F0               	movwf	___xxtofl@val
   951  0239  0864               	movf	_conteo_izq+1,w
   952  023A  00F1               	movwf	___xxtofl@val+1
   953  023B  01F2               	clrf	___xxtofl@val+2
   954  023C  01F3               	clrf	___xxtofl@val+3
   955  023D  3000               	movlw	0
   956  023E  3183  2329  3181   	fcall	___xxtofl
   957  0241  0873               	movf	?___xxtofl+3,w
   958  0242  0140               	movlb	0	; select bank0
   959  0243  00A7               	movwf	___flmul@a+3
   960  0244  0872               	movf	?___xxtofl+2,w
   961  0245  00A6               	movwf	___flmul@a+2
   962  0246  0871               	movf	?___xxtofl+1,w
   963  0247  00A5               	movwf	___flmul@a+1
   964  0248  0870               	movf	?___xxtofl,w
   965  0249  00A4               	movwf	___flmul@a
   966  024A  303F               	movlw	63
   967  024B  00A3               	movwf	___flmul@b+3
   968  024C  304C               	movlw	76
   969  024D  00A2               	movwf	___flmul@b+2
   970  024E  30CC               	movlw	204
   971  024F  00A1               	movwf	___flmul@b+1
   972  0250  30CD               	movlw	205
   973  0251  00A0               	movwf	___flmul@b
   974  0252  3185  2589  3181   	fcall	___flmul
   975  0255  0140               	movlb	0	; select bank0
   976  0256  0823               	movf	?___flmul+3,w
   977  0257  00C1               	movwf	___fldiv@b+3
   978  0258  0822               	movf	?___flmul+2,w
   979  0259  00C0               	movwf	___fldiv@b+2
   980  025A  0821               	movf	?___flmul+1,w
   981  025B  00BF               	movwf	___fldiv@b+1
   982  025C  0820               	movf	?___flmul,w
   983  025D  00BE               	movwf	___fldiv@b
   984  025E  3042               	movlw	66
   985  025F  00BD               	movwf	___fldiv@a+3
   986  0260  3040               	movlw	64
   987  0261  00BC               	movwf	___fldiv@a+2
   988  0262  3000               	movlw	0
   989  0263  00BB               	movwf	___fldiv@a+1
   990  0264  3000               	movlw	0
   991  0265  00BA               	movwf	___fldiv@a
   992  0266  3183  23D5  3181   	fcall	___fldiv
   993  0269  0140               	movlb	0	; select bank0
   994  026A  083D               	movf	?___fldiv+3,w
   995  026B  00D7               	movwf	___fltol@f1+3
   996  026C  083C               	movf	?___fldiv+2,w
   997  026D  00D6               	movwf	___fltol@f1+2
   998  026E  083B               	movf	?___fldiv+1,w
   999  026F  00D5               	movwf	___fltol@f1+1
  1000  0270  083A               	movf	?___fldiv,w
  1001  0271  00D4               	movwf	___fltol@f1
  1002  0272  318F  278B  3181   	fcall	___fltol
  1003  0275  0140               	movlb	0	; select bank0
  1004  0276  0855               	movf	?___fltol+1,w
  1005  0277  00EA               	movwf	_distanciaizquierda+1
  1006  0278  0854               	movf	?___fltol,w
  1007  0279  00E9               	movwf	_distanciaizquierda
  1008  027A                     l2023:
  1009                           
  1010                           ;principal.c: 229:     if(distanciaizquierda <= 1)
  1011  027A  086A               	movf	_distanciaizquierda+1,w
  1012  027B  3A80               	xorlw	128
  1013  027C  00DF               	movwf	??_sensor_izquierdo
  1014  027D  3080               	movlw	128
  1015  027E  025F               	subwf	??_sensor_izquierdo,w
  1016  027F  1D03               	skipz
  1017  0280  2A83               	goto	u2295
  1018  0281  3002               	movlw	2
  1019  0282  0269               	subwf	_distanciaizquierda,w
  1020  0283                     u2295:
  1021  0283  1803               	skipnc
  1022  0284  2A86               	goto	u2291
  1023  0285  2A87               	goto	u2290
  1024  0286                     u2291:
  1025  0286  2A8B               	goto	l2027
  1026  0287                     u2290:
  1027  0287                     l2025:
  1028                           
  1029                           ;principal.c: 230:     {;principal.c: 231:         sizq = 1;
  1030  0287  0140               	movlb	0	; select bank0
  1031  0288  01EE               	clrf	_sizq
  1032  0289  0AEE               	incf	_sizq,f
  1033                           
  1034                           ;principal.c: 232:     }
  1035  028A  2A8D               	goto	l207
  1036  028B                     l2027:
  1037                           
  1038                           ;principal.c: 234:     {;principal.c: 235:         sizq = 0;
  1039  028B  0140               	movlb	0	; select bank0
  1040  028C  01EE               	clrf	_sizq
  1041  028D                     l207:
  1042  028D  0008               	return
  1043  028E                     __end_of_sensor_izquierdo:
  1044                           
  1045                           	psect	text2
  1046  028E                     __ptext2:	
  1047 ;; *************** function _sensor_derecho *****************
  1048 ;; Defined at:
  1049 ;;		line 239 in file "principal.c"
  1050 ;; Parameters:    Size  Location     Type
  1051 ;;		None
  1052 ;; Auto vars:     Size  Location     Type
  1053 ;;		None
  1054 ;; Return value:  Size  Location     Type
  1055 ;;                  1    wreg      void 
  1056 ;; Registers used:
  1057 ;;		wreg, status,2, status,0, pclath, cstack
  1058 ;; Tracked objects:
  1059 ;;		On entry : 0/0
  1060 ;;		On exit  : 0/0
  1061 ;;		Unchanged: 0/0
  1062 ;; Data sizes:     COMMON   BANK0   BANK1   BANK2   BANK3   BANK4   BANK5   BANK6
  1063 ;;      Params:         0       0       0       0       0       0       0       0
  1064 ;;      Locals:         0       0       0       0       0       0       0       0
  1065 ;;      Temps:          0       3       0       0       0       0       0       0
  1066 ;;      Totals:         0       3       0       0       0       0       0       0
  1067 ;;Total ram usage:        3 bytes
  1068 ;; Hardware stack levels used:    1
  1069 ;; Hardware stack levels required when called:    2
  1070 ;; This function calls:
  1071 ;;		___fldiv
  1072 ;;		___flmul
  1073 ;;		___fltol
  1074 ;;		___xxtofl
  1075 ;; This function is called by:
  1076 ;;		_main
  1077 ;; This function uses a non-reentrant model
  1078 ;;
  1079                           
  1080                           
  1081                           ;psect for function _sensor_derecho
  1082  028E                     _sensor_derecho:
  1083  028E                     l2029:	
  1084                           ;incstack = 0
  1085                           ; Regs used in _sensor_derecho: [wreg+status,2+status,0+pclath+cstack]
  1086                           
  1087                           
  1088                           ;principal.c: 241:     TMR1H = 0x00;
  1089  028E  0144               	movlb	4	; select bank4
  1090  028F  018D               	clrf	13	;volatile
  1091                           
  1092                           ;principal.c: 242:     TMR1L = 0x00;
  1093  0290  018C               	clrf	12	;volatile
  1094                           
  1095                           ;principal.c: 243:     conteo_der = 0;
  1096  0291  0141               	movlb	1	; select bank1
  1097  0292  01A2               	clrf	_conteo_der^(0+128)
  1098  0293  01A3               	clrf	(_conteo_der+1)^(0+128)
  1099  0294                     l2031:
  1100  0294  0140               	movlb	0	; select bank0
  1101  0295  1719               	bsf	25,6	;volatile
  1102  0296                     l2033:
  1103                           
  1104                           ;principal.c: 245:     _delay((unsigned long)((10)*(1000000/4000000.0)));
  1105  0296  3200               	nop2	;2 cycle nop
  1106  0297                     l2035:
  1107  0297  0140               	movlb	0	; select bank0
  1108  0298  1319               	bcf	25,6	;volatile
  1109  0299                     l214:
  1110  0299  1E0D               	btfss	13,4	;volatile
  1111  029A  2A9C               	goto	u2301
  1112  029B  2A9D               	goto	u2300
  1113  029C                     u2301:
  1114  029C  2A99               	goto	l214
  1115  029D                     u2300:
  1116  029D                     l216:
  1117                           
  1118                           ;principal.c: 248:     TMR1ON = 1;
  1119  029D  0144               	movlb	4	; select bank4
  1120  029E  140E               	bsf	14,0	;volatile
  1121  029F                     l217:	
  1122                           ;principal.c: 249:     while (PORTBbits.RB4 && !TMR1IF);
  1123                           
  1124  029F  0140               	movlb	0	; select bank0
  1125  02A0  1E0D               	btfss	13,4	;volatile
  1126  02A1  2AA3               	goto	u2311
  1127  02A2  2AA4               	goto	u2310
  1128  02A3                     u2311:
  1129  02A3  2AA9               	goto	l221
  1130  02A4                     u2310:
  1131  02A4                     l2037:
  1132  02A4  014E               	movlb	14	; select bank14
  1133  02A5  1E8D               	btfss	13,5	;volatile
  1134  02A6  2AA8               	goto	u2321
  1135  02A7  2AA9               	goto	u2320
  1136  02A8                     u2321:
  1137  02A8  2A9F               	goto	l217
  1138  02A9                     u2320:
  1139  02A9                     l221:
  1140                           
  1141                           ;principal.c: 250:     TMR1ON = 0;
  1142  02A9  0144               	movlb	4	; select bank4
  1143  02AA  100E               	bcf	14,0	;volatile
  1144                           
  1145                           ;principal.c: 251:     if(!TMR1IF)
  1146  02AB  014E               	movlb	14	; select bank14
  1147  02AC  1A8D               	btfsc	13,5	;volatile
  1148  02AD  2AAF               	goto	u2331
  1149  02AE  2AB0               	goto	u2330
  1150  02AF                     u2331:
  1151  02AF  2ACC               	goto	l2041
  1152  02B0                     u2330:
  1153  02B0                     l2039:
  1154                           
  1155                           ;principal.c: 252:     {;principal.c: 253:         conteo_der |= TMR1H << 8;
  1156  02B0  0144               	movlb	4	; select bank4
  1157  02B1  080D               	movf	13,w	;volatile
  1158  02B2  0140               	movlb	0	; select bank0
  1159  02B3  00DF               	movwf	??_sensor_derecho
  1160  02B4  01E0               	clrf	??_sensor_derecho+1
  1161  02B5  085F               	movf	??_sensor_derecho,w
  1162  02B6  00E0               	movwf	??_sensor_derecho+1
  1163  02B7  01DF               	clrf	??_sensor_derecho
  1164  02B8  085F               	movf	??_sensor_derecho,w
  1165  02B9  0141               	movlb	1	; select bank1
  1166  02BA  04A2               	iorwf	_conteo_der^(0+128),f
  1167  02BB  0140               	movlb	0	; select bank0
  1168  02BC  0860               	movf	??_sensor_derecho+1,w
  1169  02BD  0141               	movlb	1	; select bank1
  1170  02BE  04A3               	iorwf	(_conteo_der+1)^(0+128),f
  1171                           
  1172                           ;principal.c: 254:         conteo_der |= TMR1L;
  1173  02BF  0144               	movlb	4	; select bank4
  1174  02C0  080C               	movf	12,w	;volatile
  1175  02C1  0140               	movlb	0	; select bank0
  1176  02C2  00DF               	movwf	??_sensor_derecho
  1177  02C3  01E0               	clrf	??_sensor_derecho+1
  1178  02C4  085F               	movf	??_sensor_derecho,w
  1179  02C5  0141               	movlb	1	; select bank1
  1180  02C6  04A2               	iorwf	_conteo_der^(0+128),f
  1181  02C7  0140               	movlb	0	; select bank0
  1182  02C8  0860               	movf	??_sensor_derecho+1,w
  1183  02C9  0141               	movlb	1	; select bank1
  1184  02CA  04A3               	iorwf	(_conteo_der+1)^(0+128),f
  1185                           
  1186                           ;principal.c: 255:     }
  1187  02CB  2AD1               	goto	l2045
  1188  02CC                     l2041:
  1189                           
  1190                           ;principal.c: 257:     {;principal.c: 258:         conteo_der = 0;
  1191  02CC  0141               	movlb	1	; select bank1
  1192  02CD  01A2               	clrf	_conteo_der^(0+128)
  1193  02CE  01A3               	clrf	(_conteo_der+1)^(0+128)
  1194  02CF                     l2043:
  1195                           
  1196                           ;principal.c: 259:         TMR1IF = 0;
  1197  02CF  014E               	movlb	14	; select bank14
  1198  02D0  128D               	bcf	13,5	;volatile
  1199  02D1                     l2045:
  1200                           
  1201                           ;principal.c: 261:     distanciaderecha = (conteo_der * 0.8) / 48;
  1202  02D1  0141               	movlb	1	; select bank1
  1203  02D2  0822               	movf	_conteo_der^(0+128),w
  1204  02D3  00F0               	movwf	___xxtofl@val
  1205  02D4  0823               	movf	(_conteo_der+1)^(0+128),w
  1206  02D5  00F1               	movwf	___xxtofl@val+1
  1207  02D6  01F2               	clrf	___xxtofl@val+2
  1208  02D7  01F3               	clrf	___xxtofl@val+3
  1209  02D8  3000               	movlw	0
  1210  02D9  3183  2329  3182   	fcall	___xxtofl
  1211  02DC  0873               	movf	?___xxtofl+3,w
  1212  02DD  0140               	movlb	0	; select bank0
  1213  02DE  00A7               	movwf	___flmul@a+3
  1214  02DF  0872               	movf	?___xxtofl+2,w
  1215  02E0  00A6               	movwf	___flmul@a+2
  1216  02E1  0871               	movf	?___xxtofl+1,w
  1217  02E2  00A5               	movwf	___flmul@a+1
  1218  02E3  0870               	movf	?___xxtofl,w
  1219  02E4  00A4               	movwf	___flmul@a
  1220  02E5  303F               	movlw	63
  1221  02E6  00A3               	movwf	___flmul@b+3
  1222  02E7  304C               	movlw	76
  1223  02E8  00A2               	movwf	___flmul@b+2
  1224  02E9  30CC               	movlw	204
  1225  02EA  00A1               	movwf	___flmul@b+1
  1226  02EB  30CD               	movlw	205
  1227  02EC  00A0               	movwf	___flmul@b
  1228  02ED  3185  2589  3182   	fcall	___flmul
  1229  02F0  0140               	movlb	0	; select bank0
  1230  02F1  0823               	movf	?___flmul+3,w
  1231  02F2  00C1               	movwf	___fldiv@b+3
  1232  02F3  0822               	movf	?___flmul+2,w
  1233  02F4  00C0               	movwf	___fldiv@b+2
  1234  02F5  0821               	movf	?___flmul+1,w
  1235  02F6  00BF               	movwf	___fldiv@b+1
  1236  02F7  0820               	movf	?___flmul,w
  1237  02F8  00BE               	movwf	___fldiv@b
  1238  02F9  3042               	movlw	66
  1239  02FA  00BD               	movwf	___fldiv@a+3
  1240  02FB  3040               	movlw	64
  1241  02FC  00BC               	movwf	___fldiv@a+2
  1242  02FD  3000               	movlw	0
  1243  02FE  00BB               	movwf	___fldiv@a+1
  1244  02FF  3000               	movlw	0
  1245  0300  00BA               	movwf	___fldiv@a
  1246  0301  3183  23D5  3182   	fcall	___fldiv
  1247  0304  0140               	movlb	0	; select bank0
  1248  0305  083D               	movf	?___fldiv+3,w
  1249  0306  00D7               	movwf	___fltol@f1+3
  1250  0307  083C               	movf	?___fldiv+2,w
  1251  0308  00D6               	movwf	___fltol@f1+2
  1252  0309  083B               	movf	?___fldiv+1,w
  1253  030A  00D5               	movwf	___fltol@f1+1
  1254  030B  083A               	movf	?___fldiv,w
  1255  030C  00D4               	movwf	___fltol@f1
  1256  030D  318F  278B  3182   	fcall	___fltol
  1257  0310  0140               	movlb	0	; select bank0
  1258  0311  0855               	movf	?___fltol+1,w
  1259  0312  00E8               	movwf	_distanciaderecha+1
  1260  0313  0854               	movf	?___fltol,w
  1261  0314  00E7               	movwf	_distanciaderecha
  1262  0315                     l2047:
  1263                           
  1264                           ;principal.c: 262:     if(distanciaderecha <= 1)
  1265  0315  0868               	movf	_distanciaderecha+1,w
  1266  0316  3A80               	xorlw	128
  1267  0317  00DF               	movwf	??_sensor_derecho
  1268  0318  3080               	movlw	128
  1269  0319  025F               	subwf	??_sensor_derecho,w
  1270  031A  1D03               	skipz
  1271  031B  2B1E               	goto	u2345
  1272  031C  3002               	movlw	2
  1273  031D  0267               	subwf	_distanciaderecha,w
  1274  031E                     u2345:
  1275  031E  1803               	skipnc
  1276  031F  2B21               	goto	u2341
  1277  0320  2B22               	goto	u2340
  1278  0321                     u2341:
  1279  0321  2B26               	goto	l2051
  1280  0322                     u2340:
  1281  0322                     l2049:
  1282                           
  1283                           ;principal.c: 263:     {;principal.c: 264:         sder = 1;
  1284  0322  0140               	movlb	0	; select bank0
  1285  0323  01ED               	clrf	_sder
  1286  0324  0AED               	incf	_sder,f
  1287                           
  1288                           ;principal.c: 265:     }
  1289  0325  2B28               	goto	l226
  1290  0326                     l2051:
  1291                           
  1292                           ;principal.c: 267:     {;principal.c: 268:         sder = 0;
  1293  0326  0140               	movlb	0	; select bank0
  1294  0327  01ED               	clrf	_sder
  1295  0328                     l226:
  1296  0328  0008               	return
  1297  0329                     __end_of_sensor_derecho:
  1298                           
  1299                           	psect	text3
  1300  0166                     __ptext3:	
  1301 ;; *************** function _sensor_centro *****************
  1302 ;; Defined at:
  1303 ;;		line 173 in file "principal.c"
  1304 ;; Parameters:    Size  Location     Type
  1305 ;;		None
  1306 ;; Auto vars:     Size  Location     Type
  1307 ;;		None
  1308 ;; Return value:  Size  Location     Type
  1309 ;;                  1    wreg      void 
  1310 ;; Registers used:
  1311 ;;		wreg, status,2, status,0, pclath, cstack
  1312 ;; Tracked objects:
  1313 ;;		On entry : 0/0
  1314 ;;		On exit  : 0/0
  1315 ;;		Unchanged: 0/0
  1316 ;; Data sizes:     COMMON   BANK0   BANK1   BANK2   BANK3   BANK4   BANK5   BANK6
  1317 ;;      Params:         0       0       0       0       0       0       0       0
  1318 ;;      Locals:         0       0       0       0       0       0       0       0
  1319 ;;      Temps:          0       3       0       0       0       0       0       0
  1320 ;;      Totals:         0       3       0       0       0       0       0       0
  1321 ;;Total ram usage:        3 bytes
  1322 ;; Hardware stack levels used:    1
  1323 ;; Hardware stack levels required when called:    2
  1324 ;; This function calls:
  1325 ;;		___fldiv
  1326 ;;		___flmul
  1327 ;;		___fltol
  1328 ;;		___xxtofl
  1329 ;; This function is called by:
  1330 ;;		_main
  1331 ;; This function uses a non-reentrant model
  1332 ;;
  1333                           
  1334                           
  1335                           ;psect for function _sensor_centro
  1336  0166                     _sensor_centro:
  1337  0166                     l1981:	
  1338                           ;incstack = 0
  1339                           ; Regs used in _sensor_centro: [wreg+status,2+status,0+pclath+cstack]
  1340                           
  1341                           
  1342                           ;principal.c: 175:     TMR1H = 0x00;
  1343  0166  0144               	movlb	4	; select bank4
  1344  0167  018D               	clrf	13	;volatile
  1345                           
  1346                           ;principal.c: 176:     TMR1L = 0x00;
  1347  0168  018C               	clrf	12	;volatile
  1348                           
  1349                           ;principal.c: 177:     conteo_cen = 0;
  1350  0169  0140               	movlb	0	; select bank0
  1351  016A  01E5               	clrf	_conteo_cen
  1352  016B  01E6               	clrf	_conteo_cen+1
  1353  016C                     l1983:
  1354  016C  179A               	bsf	26,7	;volatile
  1355  016D                     l1985:
  1356                           
  1357                           ;principal.c: 179:     _delay((unsigned long)((10)*(1000000/4000000.0)));
  1358  016D  3200               	nop2	;2 cycle nop
  1359  016E                     l1987:
  1360  016E  0140               	movlb	0	; select bank0
  1361  016F  139A               	bcf	26,7	;volatile
  1362  0170                     l176:
  1363  0170  1F0E               	btfss	14,6	;volatile
  1364  0171  2973               	goto	u2201
  1365  0172  2974               	goto	u2200
  1366  0173                     u2201:
  1367  0173  2970               	goto	l176
  1368  0174                     u2200:
  1369  0174                     l178:
  1370                           
  1371                           ;principal.c: 182:     TMR1ON = 1;
  1372  0174  0144               	movlb	4	; select bank4
  1373  0175  140E               	bsf	14,0	;volatile
  1374  0176                     l179:	
  1375                           ;principal.c: 183:     while (PORTCbits.RC6 && !TMR1IF);
  1376                           
  1377  0176  0140               	movlb	0	; select bank0
  1378  0177  1F0E               	btfss	14,6	;volatile
  1379  0178  297A               	goto	u2211
  1380  0179  297B               	goto	u2210
  1381  017A                     u2211:
  1382  017A  2980               	goto	l183
  1383  017B                     u2210:
  1384  017B                     l1989:
  1385  017B  014E               	movlb	14	; select bank14
  1386  017C  1E8D               	btfss	13,5	;volatile
  1387  017D  297F               	goto	u2221
  1388  017E  2980               	goto	u2220
  1389  017F                     u2221:
  1390  017F  2976               	goto	l179
  1391  0180                     u2220:
  1392  0180                     l183:
  1393                           
  1394                           ;principal.c: 184:     TMR1ON = 0;
  1395  0180  0144               	movlb	4	; select bank4
  1396  0181  100E               	bcf	14,0	;volatile
  1397                           
  1398                           ;principal.c: 185:     if(!TMR1IF)
  1399  0182  014E               	movlb	14	; select bank14
  1400  0183  1A8D               	btfsc	13,5	;volatile
  1401  0184  2986               	goto	u2231
  1402  0185  2987               	goto	u2230
  1403  0186                     u2231:
  1404  0186  299D               	goto	l1993
  1405  0187                     u2230:
  1406  0187                     l1991:
  1407                           
  1408                           ;principal.c: 186:     {;principal.c: 187:         conteo_cen |= TMR1H << 8;
  1409  0187  0144               	movlb	4	; select bank4
  1410  0188  080D               	movf	13,w	;volatile
  1411  0189  0140               	movlb	0	; select bank0
  1412  018A  00DF               	movwf	??_sensor_centro
  1413  018B  01E0               	clrf	??_sensor_centro+1
  1414  018C  085F               	movf	??_sensor_centro,w
  1415  018D  00E0               	movwf	??_sensor_centro+1
  1416  018E  01DF               	clrf	??_sensor_centro
  1417  018F  085F               	movf	??_sensor_centro,w
  1418  0190  04E5               	iorwf	_conteo_cen,f
  1419  0191  0860               	movf	??_sensor_centro+1,w
  1420  0192  04E6               	iorwf	_conteo_cen+1,f
  1421                           
  1422                           ;principal.c: 188:         conteo_cen |= TMR1L;
  1423  0193  0144               	movlb	4	; select bank4
  1424  0194  080C               	movf	12,w	;volatile
  1425  0195  0140               	movlb	0	; select bank0
  1426  0196  00DF               	movwf	??_sensor_centro
  1427  0197  01E0               	clrf	??_sensor_centro+1
  1428  0198  085F               	movf	??_sensor_centro,w
  1429  0199  04E5               	iorwf	_conteo_cen,f
  1430  019A  0860               	movf	??_sensor_centro+1,w
  1431  019B  04E6               	iorwf	_conteo_cen+1,f
  1432                           
  1433                           ;principal.c: 189:     }
  1434  019C  29A2               	goto	l1997
  1435  019D                     l1993:
  1436                           
  1437                           ;principal.c: 191:     {;principal.c: 192:         conteo_cen = 0;
  1438  019D  0140               	movlb	0	; select bank0
  1439  019E  01E5               	clrf	_conteo_cen
  1440  019F  01E6               	clrf	_conteo_cen+1
  1441  01A0                     l1995:
  1442                           
  1443                           ;principal.c: 193:         TMR1IF = 0;
  1444  01A0  014E               	movlb	14	; select bank14
  1445  01A1  128D               	bcf	13,5	;volatile
  1446  01A2                     l1997:
  1447                           
  1448                           ;principal.c: 195:     distanciafrontal = (conteo_cen * 0.8) / 48;
  1449  01A2  0140               	movlb	0	; select bank0
  1450  01A3  0865               	movf	_conteo_cen,w
  1451  01A4  00F0               	movwf	___xxtofl@val
  1452  01A5  0866               	movf	_conteo_cen+1,w
  1453  01A6  00F1               	movwf	___xxtofl@val+1
  1454  01A7  01F2               	clrf	___xxtofl@val+2
  1455  01A8  01F3               	clrf	___xxtofl@val+3
  1456  01A9  3000               	movlw	0
  1457  01AA  3183  2329  3181   	fcall	___xxtofl
  1458  01AD  0873               	movf	?___xxtofl+3,w
  1459  01AE  0140               	movlb	0	; select bank0
  1460  01AF  00A7               	movwf	___flmul@a+3
  1461  01B0  0872               	movf	?___xxtofl+2,w
  1462  01B1  00A6               	movwf	___flmul@a+2
  1463  01B2  0871               	movf	?___xxtofl+1,w
  1464  01B3  00A5               	movwf	___flmul@a+1
  1465  01B4  0870               	movf	?___xxtofl,w
  1466  01B5  00A4               	movwf	___flmul@a
  1467  01B6  303F               	movlw	63
  1468  01B7  00A3               	movwf	___flmul@b+3
  1469  01B8  304C               	movlw	76
  1470  01B9  00A2               	movwf	___flmul@b+2
  1471  01BA  30CC               	movlw	204
  1472  01BB  00A1               	movwf	___flmul@b+1
  1473  01BC  30CD               	movlw	205
  1474  01BD  00A0               	movwf	___flmul@b
  1475  01BE  3185  2589  3181   	fcall	___flmul
  1476  01C1  0140               	movlb	0	; select bank0
  1477  01C2  0823               	movf	?___flmul+3,w
  1478  01C3  00C1               	movwf	___fldiv@b+3
  1479  01C4  0822               	movf	?___flmul+2,w
  1480  01C5  00C0               	movwf	___fldiv@b+2
  1481  01C6  0821               	movf	?___flmul+1,w
  1482  01C7  00BF               	movwf	___fldiv@b+1
  1483  01C8  0820               	movf	?___flmul,w
  1484  01C9  00BE               	movwf	___fldiv@b
  1485  01CA  3042               	movlw	66
  1486  01CB  00BD               	movwf	___fldiv@a+3
  1487  01CC  3040               	movlw	64
  1488  01CD  00BC               	movwf	___fldiv@a+2
  1489  01CE  3000               	movlw	0
  1490  01CF  00BB               	movwf	___fldiv@a+1
  1491  01D0  3000               	movlw	0
  1492  01D1  00BA               	movwf	___fldiv@a
  1493  01D2  3183  23D5  3181   	fcall	___fldiv
  1494  01D5  0140               	movlb	0	; select bank0
  1495  01D6  083D               	movf	?___fldiv+3,w
  1496  01D7  00D7               	movwf	___fltol@f1+3
  1497  01D8  083C               	movf	?___fldiv+2,w
  1498  01D9  00D6               	movwf	___fltol@f1+2
  1499  01DA  083B               	movf	?___fldiv+1,w
  1500  01DB  00D5               	movwf	___fltol@f1+1
  1501  01DC  083A               	movf	?___fldiv,w
  1502  01DD  00D4               	movwf	___fltol@f1
  1503  01DE  318F  278B  3181   	fcall	___fltol
  1504  01E1  0140               	movlb	0	; select bank0
  1505  01E2  0855               	movf	?___fltol+1,w
  1506  01E3  00EC               	movwf	_distanciafrontal+1
  1507  01E4  0854               	movf	?___fltol,w
  1508  01E5  00EB               	movwf	_distanciafrontal
  1509  01E6                     l1999:
  1510                           
  1511                           ;principal.c: 196:     if(distanciafrontal <= 1)
  1512  01E6  086C               	movf	_distanciafrontal+1,w
  1513  01E7  3A80               	xorlw	128
  1514  01E8  00DF               	movwf	??_sensor_centro
  1515  01E9  3080               	movlw	128
  1516  01EA  025F               	subwf	??_sensor_centro,w
  1517  01EB  1D03               	skipz
  1518  01EC  29EF               	goto	u2245
  1519  01ED  3002               	movlw	2
  1520  01EE  026B               	subwf	_distanciafrontal,w
  1521  01EF                     u2245:
  1522  01EF  1803               	skipnc
  1523  01F0  29F2               	goto	u2241
  1524  01F1  29F3               	goto	u2240
  1525  01F2                     u2241:
  1526  01F2  29F7               	goto	l2003
  1527  01F3                     u2240:
  1528  01F3                     l2001:
  1529                           
  1530                           ;principal.c: 197:     {;principal.c: 198:         scen = 1;
  1531  01F3  0140               	movlb	0	; select bank0
  1532  01F4  01EF               	clrf	_scen
  1533  01F5  0AEF               	incf	_scen,f
  1534                           
  1535                           ;principal.c: 199:     }
  1536  01F6  29F9               	goto	l188
  1537  01F7                     l2003:
  1538                           
  1539                           ;principal.c: 201:     {;principal.c: 202:         scen = 0;
  1540  01F7  0140               	movlb	0	; select bank0
  1541  01F8  01EF               	clrf	_scen
  1542  01F9                     l188:
  1543  01F9  0008               	return
  1544  01FA                     __end_of_sensor_centro:
  1545                           
  1546                           	psect	text4
  1547  0329                     __ptext4:	
  1548 ;; *************** function ___xxtofl *****************
  1549 ;; Defined at:
  1550 ;;		line 10 in file "C:\Program Files\Microchip\xc8\v2.31\pic\sources\c99\common\xxtofl.c"
  1551 ;; Parameters:    Size  Location     Type
  1552 ;;  sign            1    wreg     unsigned char 
  1553 ;;  val             4    0[COMMON] long 
  1554 ;; Auto vars:     Size  Location     Type
  1555 ;;  sign            1    8[COMMON] unsigned char 
  1556 ;;  arg             4   10[COMMON] unsigned long 
  1557 ;;  exp             1    9[COMMON] unsigned char 
  1558 ;; Return value:  Size  Location     Type
  1559 ;;                  4    0[COMMON] unsigned char 
  1560 ;; Registers used:
  1561 ;;		wreg, status,2, status,0
  1562 ;; Tracked objects:
  1563 ;;		On entry : 0/0
  1564 ;;		On exit  : 0/0
  1565 ;;		Unchanged: 0/0
  1566 ;; Data sizes:     COMMON   BANK0   BANK1   BANK2   BANK3   BANK4   BANK5   BANK6
  1567 ;;      Params:         4       0       0       0       0       0       0       0
  1568 ;;      Locals:         6       0       0       0       0       0       0       0
  1569 ;;      Temps:          4       0       0       0       0       0       0       0
  1570 ;;      Totals:        14       0       0       0       0       0       0       0
  1571 ;;Total ram usage:       14 bytes
  1572 ;; Hardware stack levels used:    1
  1573 ;; This function calls:
  1574 ;;		Nothing
  1575 ;; This function is called by:
  1576 ;;		_sensor_centro
  1577 ;;		_sensor_izquierdo
  1578 ;;		_sensor_derecho
  1579 ;; This function uses a non-reentrant model
  1580 ;;
  1581                           
  1582                           
  1583                           ;psect for function ___xxtofl
  1584  0329                     ___xxtofl:
  1585                           
  1586                           ;incstack = 0
  1587                           ; Regs used in ___xxtofl: [wreg+status,2+status,0]
  1588                           ;___xxtofl@sign stored from wreg
  1589  0329  00F8               	movwf	___xxtofl@sign
  1590  032A                     l1937:
  1591  032A  0878               	movf	___xxtofl@sign,w
  1592  032B  1903               	btfsc	3,2
  1593  032C  2B2E               	goto	u2061
  1594  032D  2B2F               	goto	u2060
  1595  032E                     u2061:
  1596  032E  2B43               	goto	l1943
  1597  032F                     u2060:
  1598  032F                     l1939:
  1599  032F  1FF3               	btfss	___xxtofl@val+3,7
  1600  0330  2B32               	goto	u2071
  1601  0331  2B33               	goto	u2070
  1602  0332                     u2071:
  1603  0332  2B43               	goto	l1943
  1604  0333                     u2070:
  1605  0333                     l1941:
  1606  0333  0970               	comf	___xxtofl@val,w
  1607  0334  00FA               	movwf	___xxtofl@arg
  1608  0335  0971               	comf	___xxtofl@val+1,w
  1609  0336  00FB               	movwf	___xxtofl@arg+1
  1610  0337  0972               	comf	___xxtofl@val+2,w
  1611  0338  00FC               	movwf	___xxtofl@arg+2
  1612  0339  0973               	comf	___xxtofl@val+3,w
  1613  033A  00FD               	movwf	___xxtofl@arg+3
  1614  033B  0AFA               	incf	___xxtofl@arg,f
  1615  033C  1903               	skipnz
  1616  033D  0AFB               	incf	___xxtofl@arg+1,f
  1617  033E  1903               	skipnz
  1618  033F  0AFC               	incf	___xxtofl@arg+2,f
  1619  0340  1903               	skipnz
  1620  0341  0AFD               	incf	___xxtofl@arg+3,f
  1621  0342  2B4B               	goto	l806
  1622  0343                     l1943:
  1623  0343  0873               	movf	___xxtofl@val+3,w
  1624  0344  00FD               	movwf	___xxtofl@arg+3
  1625  0345  0872               	movf	___xxtofl@val+2,w
  1626  0346  00FC               	movwf	___xxtofl@arg+2
  1627  0347  0871               	movf	___xxtofl@val+1,w
  1628  0348  00FB               	movwf	___xxtofl@arg+1
  1629  0349  0870               	movf	___xxtofl@val,w
  1630  034A  00FA               	movwf	___xxtofl@arg
  1631  034B                     l806:
  1632  034B  0873               	movf	___xxtofl@val+3,w
  1633  034C  0472               	iorwf	___xxtofl@val+2,w
  1634  034D  0471               	iorwf	___xxtofl@val+1,w
  1635  034E  0470               	iorwf	___xxtofl@val,w
  1636  034F  1D03               	skipz
  1637  0350  2B52               	goto	u2081
  1638  0351  2B53               	goto	u2080
  1639  0352                     u2081:
  1640  0352  2B5C               	goto	l1949
  1641  0353                     u2080:
  1642  0353                     l1945:
  1643  0353  3000               	movlw	0
  1644  0354  00F3               	movwf	?___xxtofl+3
  1645  0355  3000               	movlw	0
  1646  0356  00F2               	movwf	?___xxtofl+2
  1647  0357  3000               	movlw	0
  1648  0358  00F1               	movwf	?___xxtofl+1
  1649  0359  3000               	movlw	0
  1650  035A  00F0               	movwf	?___xxtofl
  1651  035B  2BD4               	goto	l808
  1652  035C                     l1949:
  1653  035C  3096               	movlw	150
  1654  035D  00F4               	movwf	??___xxtofl
  1655  035E  0874               	movf	??___xxtofl,w
  1656  035F  00F9               	movwf	___xxtofl@exp
  1657  0360  2B6C               	goto	l1953
  1658  0361                     l1951:
  1659  0361  3001               	movlw	1
  1660  0362  00F4               	movwf	??___xxtofl
  1661  0363  0874               	movf	??___xxtofl,w
  1662  0364  07F9               	addwf	___xxtofl@exp,f
  1663  0365  3001               	movlw	1
  1664  0366                     u2095:
  1665  0366  36FD               	lsrf	___xxtofl@arg+3,f
  1666  0367  0CFC               	rrf	___xxtofl@arg+2,f
  1667  0368  0CFB               	rrf	___xxtofl@arg+1,f
  1668  0369  0CFA               	rrf	___xxtofl@arg,f
  1669  036A  0B89               	decfsz	9,f
  1670  036B  2B66               	goto	u2095
  1671  036C                     l1953:
  1672  036C  30FE               	movlw	254
  1673  036D  057D               	andwf	___xxtofl@arg+3,w
  1674  036E  1D03               	btfss	3,2
  1675  036F  2B71               	goto	u2101
  1676  0370  2B72               	goto	u2100
  1677  0371                     u2101:
  1678  0371  2B61               	goto	l1951
  1679  0372                     u2100:
  1680  0372  2B86               	goto	l812
  1681  0373                     l1955:
  1682  0373  3001               	movlw	1
  1683  0374  00F4               	movwf	??___xxtofl
  1684  0375  0874               	movf	??___xxtofl,w
  1685  0376  07F9               	addwf	___xxtofl@exp,f
  1686  0377                     l1957:
  1687  0377  3001               	movlw	1
  1688  0378  07FA               	addwf	___xxtofl@arg,f
  1689  0379  3000               	movlw	0
  1690  037A  3DFB               	addwfc	___xxtofl@arg+1,f
  1691  037B  3000               	movlw	0
  1692  037C  3DFC               	addwfc	___xxtofl@arg+2,f
  1693  037D  3000               	movlw	0
  1694  037E  3DFD               	addwfc	___xxtofl@arg+3,f
  1695  037F                     l1959:
  1696  037F  3001               	movlw	1
  1697  0380                     u2115:
  1698  0380  36FD               	lsrf	___xxtofl@arg+3,f
  1699  0381  0CFC               	rrf	___xxtofl@arg+2,f
  1700  0382  0CFB               	rrf	___xxtofl@arg+1,f
  1701  0383  0CFA               	rrf	___xxtofl@arg,f
  1702  0384  0B89               	decfsz	9,f
  1703  0385  2B80               	goto	u2115
  1704  0386                     l812:
  1705  0386  30FF               	movlw	255
  1706  0387  057D               	andwf	___xxtofl@arg+3,w
  1707  0388  1D03               	btfss	3,2
  1708  0389  2B8B               	goto	u2121
  1709  038A  2B8C               	goto	u2120
  1710  038B                     u2121:
  1711  038B  2B73               	goto	l1955
  1712  038C                     u2120:
  1713  038C  2B96               	goto	l1963
  1714  038D                     l1961:
  1715  038D  3001               	movlw	1
  1716  038E  02F9               	subwf	___xxtofl@exp,f
  1717  038F  3001               	movlw	1
  1718  0390                     u2135:
  1719  0390  35FA               	lslf	___xxtofl@arg,f
  1720  0391  0DFB               	rlf	___xxtofl@arg+1,f
  1721  0392  0DFC               	rlf	___xxtofl@arg+2,f
  1722  0393  0DFD               	rlf	___xxtofl@arg+3,f
  1723  0394  0B89               	decfsz	9,f
  1724  0395  2B90               	goto	u2135
  1725  0396                     l1963:
  1726  0396  1BFC               	btfsc	___xxtofl@arg+2,7
  1727  0397  2B99               	goto	u2141
  1728  0398  2B9A               	goto	u2140
  1729  0399                     u2141:
  1730  0399  2BA0               	goto	l819
  1731  039A                     u2140:
  1732  039A                     l1965:
  1733  039A  3002               	movlw	2
  1734  039B  0279               	subwf	___xxtofl@exp,w
  1735  039C  1803               	skipnc
  1736  039D  2B9F               	goto	u2151
  1737  039E  2BA0               	goto	u2150
  1738  039F                     u2151:
  1739  039F  2B8D               	goto	l1961
  1740  03A0                     u2150:
  1741  03A0                     l819:
  1742  03A0  1879               	btfsc	___xxtofl@exp,0
  1743  03A1  2BA3               	goto	u2161
  1744  03A2  2BA4               	goto	u2160
  1745  03A3                     u2161:
  1746  03A3  2BAC               	goto	l820
  1747  03A4                     u2160:
  1748  03A4                     l1967:
  1749  03A4  30FF               	movlw	255
  1750  03A5  05FA               	andwf	___xxtofl@arg,f
  1751  03A6  30FF               	movlw	255
  1752  03A7  05FB               	andwf	___xxtofl@arg+1,f
  1753  03A8  307F               	movlw	127
  1754  03A9  05FC               	andwf	___xxtofl@arg+2,f
  1755  03AA  30FF               	movlw	255
  1756  03AB  05FD               	andwf	___xxtofl@arg+3,f
  1757  03AC                     l820:
  1758  03AC  1003               	clrc
  1759  03AD  0CF9               	rrf	___xxtofl@exp,f
  1760  03AE                     l1969:
  1761  03AE  0879               	movf	___xxtofl@exp,w
  1762  03AF  00F4               	movwf	??___xxtofl
  1763  03B0  01F5               	clrf	??___xxtofl+1
  1764  03B1  01F6               	clrf	??___xxtofl+2
  1765  03B2  01F7               	clrf	??___xxtofl+3
  1766  03B3  3018               	movlw	24
  1767  03B4                     u2175:
  1768  03B4  35F4               	lslf	??___xxtofl,f
  1769  03B5  0DF5               	rlf	??___xxtofl+1,f
  1770  03B6  0DF6               	rlf	??___xxtofl+2,f
  1771  03B7  0DF7               	rlf	??___xxtofl+3,f
  1772  03B8                     u2170:
  1773  03B8  0B89               	decfsz	9,f
  1774  03B9  2BB4               	goto	u2175
  1775  03BA  0874               	movf	??___xxtofl,w
  1776  03BB  04FA               	iorwf	___xxtofl@arg,f
  1777  03BC  0875               	movf	??___xxtofl+1,w
  1778  03BD  04FB               	iorwf	___xxtofl@arg+1,f
  1779  03BE  0876               	movf	??___xxtofl+2,w
  1780  03BF  04FC               	iorwf	___xxtofl@arg+2,f
  1781  03C0  0877               	movf	??___xxtofl+3,w
  1782  03C1  04FD               	iorwf	___xxtofl@arg+3,f
  1783  03C2                     l1971:
  1784  03C2  0878               	movf	___xxtofl@sign,w
  1785  03C3  1903               	btfsc	3,2
  1786  03C4  2BC6               	goto	u2181
  1787  03C5  2BC7               	goto	u2180
  1788  03C6                     u2181:
  1789  03C6  2BCC               	goto	l1977
  1790  03C7                     u2180:
  1791  03C7                     l1973:
  1792  03C7  1FF3               	btfss	___xxtofl@val+3,7
  1793  03C8  2BCA               	goto	u2191
  1794  03C9  2BCB               	goto	u2190
  1795  03CA                     u2191:
  1796  03CA  2BCC               	goto	l1977
  1797  03CB                     u2190:
  1798  03CB                     l1975:
  1799  03CB  17FD               	bsf	___xxtofl@arg+3,7
  1800  03CC                     l1977:
  1801  03CC  087D               	movf	___xxtofl@arg+3,w
  1802  03CD  00F3               	movwf	?___xxtofl+3
  1803  03CE  087C               	movf	___xxtofl@arg+2,w
  1804  03CF  00F2               	movwf	?___xxtofl+2
  1805  03D0  087B               	movf	___xxtofl@arg+1,w
  1806  03D1  00F1               	movwf	?___xxtofl+1
  1807  03D2  087A               	movf	___xxtofl@arg,w
  1808  03D3  00F0               	movwf	?___xxtofl
  1809  03D4                     l808:
  1810  03D4  0008               	return
  1811  03D5                     __end_of___xxtofl:
  1812                           
  1813                           	psect	text5
  1814  0F8B                     __ptext5:	
  1815 ;; *************** function ___fltol *****************
  1816 ;; Defined at:
  1817 ;;		line 43 in file "C:\Program Files\Microchip\xc8\v2.31\pic\sources\c99\common\fltol.c"
  1818 ;; Parameters:    Size  Location     Type
  1819 ;;  f1              4   52[BANK0 ] unsigned char 
  1820 ;; Auto vars:     Size  Location     Type
  1821 ;;  exp1            1   62[BANK0 ] unsigned char 
  1822 ;;  sign1           1   61[BANK0 ] unsigned char 
  1823 ;; Return value:  Size  Location     Type
  1824 ;;                  4   52[BANK0 ] long 
  1825 ;; Registers used:
  1826 ;;		wreg, status,2, status,0
  1827 ;; Tracked objects:
  1828 ;;		On entry : 0/0
  1829 ;;		On exit  : 0/0
  1830 ;;		Unchanged: 0/0
  1831 ;; Data sizes:     COMMON   BANK0   BANK1   BANK2   BANK3   BANK4   BANK5   BANK6
  1832 ;;      Params:         0       4       0       0       0       0       0       0
  1833 ;;      Locals:         0       2       0       0       0       0       0       0
  1834 ;;      Temps:          0       5       0       0       0       0       0       0
  1835 ;;      Totals:         0      11       0       0       0       0       0       0
  1836 ;;Total ram usage:       11 bytes
  1837 ;; Hardware stack levels used:    1
  1838 ;; This function calls:
  1839 ;;		Nothing
  1840 ;; This function is called by:
  1841 ;;		_sensor_centro
  1842 ;;		_sensor_izquierdo
  1843 ;;		_sensor_derecho
  1844 ;; This function uses a non-reentrant model
  1845 ;;
  1846                           
  1847                           
  1848                           ;psect for function ___fltol
  1849  0F8B                     ___fltol:
  1850  0F8B                     l1621:	
  1851                           ;incstack = 0
  1852                           ; Regs used in ___fltol: [wreg+status,2+status,0]
  1853                           
  1854  0F8B  1003               	clrc
  1855  0F8C  0140               	movlb	0	; select bank0
  1856  0F8D  0D56               	rlf	___fltol@f1+2,w
  1857  0F8E  0D57               	rlf	___fltol@f1+3,w
  1858  0F8F  00D8               	movwf	??___fltol
  1859  0F90  0858               	movf	??___fltol,w
  1860  0F91  00DE               	movwf	___fltol@exp1
  1861  0F92  085E               	movf	___fltol@exp1,w
  1862  0F93  1D03               	btfss	3,2
  1863  0F94  2F96               	goto	u1411
  1864  0F95  2F97               	goto	u1410
  1865  0F96                     u1411:
  1866  0F96  2FA0               	goto	l1627
  1867  0F97                     u1410:
  1868  0F97                     l1623:
  1869  0F97  3000               	movlw	0
  1870  0F98  00D7               	movwf	?___fltol+3
  1871  0F99  3000               	movlw	0
  1872  0F9A  00D6               	movwf	?___fltol+2
  1873  0F9B  3000               	movlw	0
  1874  0F9C  00D5               	movwf	?___fltol+1
  1875  0F9D  3000               	movlw	0
  1876  0F9E  00D4               	movwf	?___fltol
  1877  0F9F  2FFF               	goto	l559
  1878  0FA0                     l1627:
  1879  0FA0  0854               	movf	___fltol@f1,w
  1880  0FA1  00D8               	movwf	??___fltol
  1881  0FA2  0855               	movf	___fltol@f1+1,w
  1882  0FA3  00D9               	movwf	??___fltol+1
  1883  0FA4  0856               	movf	___fltol@f1+2,w
  1884  0FA5  00DA               	movwf	??___fltol+2
  1885  0FA6  0857               	movf	___fltol@f1+3,w
  1886  0FA7  00DB               	movwf	??___fltol+3
  1887  0FA8  301F               	movlw	31
  1888  0FA9                     u1425:
  1889  0FA9  36DB               	lsrf	??___fltol+3,f
  1890  0FAA  0CDA               	rrf	??___fltol+2,f
  1891  0FAB  0CD9               	rrf	??___fltol+1,f
  1892  0FAC  0CD8               	rrf	??___fltol,f
  1893  0FAD                     u1420:
  1894  0FAD  0B89               	decfsz	9,f
  1895  0FAE  2FA9               	goto	u1425
  1896  0FAF  0858               	movf	??___fltol,w
  1897  0FB0  00DC               	movwf	??___fltol+4
  1898  0FB1  085C               	movf	??___fltol+4,w
  1899  0FB2  00DD               	movwf	___fltol@sign1
  1900  0FB3                     l1629:
  1901  0FB3  17D6               	bsf	___fltol@f1+2,7
  1902  0FB4                     l1631:
  1903  0FB4  30FF               	movlw	255
  1904  0FB5  05D4               	andwf	___fltol@f1,f
  1905  0FB6  30FF               	movlw	255
  1906  0FB7  05D5               	andwf	___fltol@f1+1,f
  1907  0FB8  30FF               	movlw	255
  1908  0FB9  05D6               	andwf	___fltol@f1+2,f
  1909  0FBA  3000               	movlw	0
  1910  0FBB  05D7               	andwf	___fltol@f1+3,f
  1911  0FBC                     l1633:
  1912  0FBC  3096               	movlw	150
  1913  0FBD  02DE               	subwf	___fltol@exp1,f
  1914  0FBE                     l1635:
  1915  0FBE  1FDE               	btfss	___fltol@exp1,7
  1916  0FBF  2FC1               	goto	u1431
  1917  0FC0  2FC2               	goto	u1430
  1918  0FC1                     u1431:
  1919  0FC1  2FDA               	goto	l1645
  1920  0FC2                     u1430:
  1921  0FC2                     l1637:
  1922  0FC2  085E               	movf	___fltol@exp1,w
  1923  0FC3  3A80               	xorlw	128
  1924  0FC4  3E97               	addlw	151
  1925  0FC5  1803               	skipnc
  1926  0FC6  2FC8               	goto	u1441
  1927  0FC7  2FC9               	goto	u1440
  1928  0FC8                     u1441:
  1929  0FC8  2FCA               	goto	l1643
  1930  0FC9                     u1440:
  1931  0FC9  2F97               	goto	l1623
  1932  0FCA                     l1643:
  1933  0FCA  3001               	movlw	1
  1934  0FCB                     u1455:
  1935  0FCB  36D7               	lsrf	___fltol@f1+3,f
  1936  0FCC  0CD6               	rrf	___fltol@f1+2,f
  1937  0FCD  0CD5               	rrf	___fltol@f1+1,f
  1938  0FCE  0CD4               	rrf	___fltol@f1,f
  1939  0FCF  0B89               	decfsz	9,f
  1940  0FD0  2FCB               	goto	u1455
  1941  0FD1  3001               	movlw	1
  1942  0FD2  00D8               	movwf	??___fltol
  1943  0FD3  0858               	movf	??___fltol,w
  1944  0FD4  07DE               	addwf	___fltol@exp1,f
  1945  0FD5  1D03               	btfss	3,2
  1946  0FD6  2FD8               	goto	u1461
  1947  0FD7  2FD9               	goto	u1460
  1948  0FD8                     u1461:
  1949  0FD8  2FCA               	goto	l1643
  1950  0FD9                     u1460:
  1951  0FD9  2FEF               	goto	l1653
  1952  0FDA                     l1645:
  1953  0FDA  3020               	movlw	32
  1954  0FDB  025E               	subwf	___fltol@exp1,w
  1955  0FDC  1C03               	skipc
  1956  0FDD  2FDF               	goto	u1471
  1957  0FDE  2FE0               	goto	u1470
  1958  0FDF                     u1471:
  1959  0FDF  2FEA               	goto	l566
  1960  0FE0                     u1470:
  1961  0FE0  2F97               	goto	l1623
  1962  0FE1                     l1651:
  1963  0FE1  3001               	movlw	1
  1964  0FE2                     u1485:
  1965  0FE2  35D4               	lslf	___fltol@f1,f
  1966  0FE3  0DD5               	rlf	___fltol@f1+1,f
  1967  0FE4  0DD6               	rlf	___fltol@f1+2,f
  1968  0FE5  0DD7               	rlf	___fltol@f1+3,f
  1969  0FE6  0B89               	decfsz	9,f
  1970  0FE7  2FE2               	goto	u1485
  1971  0FE8  3001               	movlw	1
  1972  0FE9  02DE               	subwf	___fltol@exp1,f
  1973  0FEA                     l566:
  1974  0FEA  085E               	movf	___fltol@exp1,w
  1975  0FEB  1D03               	btfss	3,2
  1976  0FEC  2FEE               	goto	u1491
  1977  0FED  2FEF               	goto	u1490
  1978  0FEE                     u1491:
  1979  0FEE  2FE1               	goto	l1651
  1980  0FEF                     u1490:
  1981  0FEF                     l1653:
  1982  0FEF  085D               	movf	___fltol@sign1,w
  1983  0FF0  1903               	btfsc	3,2
  1984  0FF1  2FF3               	goto	u1501
  1985  0FF2  2FF4               	goto	u1500
  1986  0FF3                     u1501:
  1987  0FF3  2FFF               	goto	l569
  1988  0FF4                     u1500:
  1989  0FF4                     l1655:
  1990  0FF4  09D4               	comf	___fltol@f1,f
  1991  0FF5  09D5               	comf	___fltol@f1+1,f
  1992  0FF6  09D6               	comf	___fltol@f1+2,f
  1993  0FF7  09D7               	comf	___fltol@f1+3,f
  1994  0FF8  0AD4               	incf	___fltol@f1,f
  1995  0FF9  1903               	skipnz
  1996  0FFA  0AD5               	incf	___fltol@f1+1,f
  1997  0FFB  1903               	skipnz
  1998  0FFC  0AD6               	incf	___fltol@f1+2,f
  1999  0FFD  1903               	skipnz
  2000  0FFE  0AD7               	incf	___fltol@f1+3,f
  2001  0FFF                     l569:
  2002  0FFF                     l559:
  2003  0FFF  0008               	return
  2004  1000                     __end_of___fltol:
  2005                           
  2006                           	psect	text6
  2007  0589                     __ptext6:	
  2008 ;; *************** function ___flmul *****************
  2009 ;; Defined at:
  2010 ;;		line 8 in file "C:\Program Files\Microchip\xc8\v2.31\pic\sources\c99\common\sprcmul.c"
  2011 ;; Parameters:    Size  Location     Type
  2012 ;;  b               4    0[BANK0 ] long 
  2013 ;;  a               4    4[BANK0 ] long 
  2014 ;; Auto vars:     Size  Location     Type
  2015 ;;  prod            4   20[BANK0 ] struct .
  2016 ;;  grs             4   14[BANK0 ] unsigned long 
  2017 ;;  temp            2   24[BANK0 ] struct .
  2018 ;;  bexp            1   19[BANK0 ] unsigned char 
  2019 ;;  aexp            1   18[BANK0 ] unsigned char 
  2020 ;;  sign            1   13[BANK0 ] unsigned char 
  2021 ;; Return value:  Size  Location     Type
  2022 ;;                  4    0[BANK0 ] unsigned char 
  2023 ;; Registers used:
  2024 ;;		wreg, status,2, status,0, pclath, cstack
  2025 ;; Tracked objects:
  2026 ;;		On entry : 0/0
  2027 ;;		On exit  : 0/0
  2028 ;;		Unchanged: 0/0
  2029 ;; Data sizes:     COMMON   BANK0   BANK1   BANK2   BANK3   BANK4   BANK5   BANK6
  2030 ;;      Params:         0       8       0       0       0       0       0       0
  2031 ;;      Locals:         0      13       0       0       0       0       0       0
  2032 ;;      Temps:          0       5       0       0       0       0       0       0
  2033 ;;      Totals:         0      26       0       0       0       0       0       0
  2034 ;;Total ram usage:       26 bytes
  2035 ;; Hardware stack levels used:    1
  2036 ;; Hardware stack levels required when called:    1
  2037 ;; This function calls:
  2038 ;;		__Umul8_16
  2039 ;; This function is called by:
  2040 ;;		_sensor_centro
  2041 ;;		_sensor_izquierdo
  2042 ;;		_sensor_derecho
  2043 ;; This function uses a non-reentrant model
  2044 ;;
  2045                           
  2046                           
  2047                           ;psect for function ___flmul
  2048  0589                     ___flmul:
  2049  0589                     l1797:	
  2050                           ;incstack = 0
  2051                           ; Regs used in ___flmul: [wreg+status,2+status,0+pclath+cstack]
  2052                           
  2053  0589  0140               	movlb	0	; select bank0
  2054  058A  0823               	movf	___flmul@b+3,w
  2055  058B  3980               	andlw	128
  2056  058C  00A8               	movwf	??___flmul
  2057  058D  0828               	movf	??___flmul,w
  2058  058E  00AD               	movwf	___flmul@sign
  2059  058F                     l1799:
  2060  058F  3523               	lslf	___flmul@b+3,w
  2061  0590  00A8               	movwf	??___flmul
  2062  0591  0828               	movf	??___flmul,w
  2063  0592  00B3               	movwf	___flmul@bexp
  2064  0593                     l1801:
  2065  0593  1FA2               	btfss	___flmul@b+2,7
  2066  0594  2D96               	goto	u1801
  2067  0595  2D97               	goto	u1800
  2068  0596                     u1801:
  2069  0596  2D98               	goto	l1805
  2070  0597                     u1800:
  2071  0597                     l1803:
  2072  0597  1433               	bsf	___flmul@bexp,0
  2073  0598                     l1805:
  2074  0598  0833               	movf	___flmul@bexp,w
  2075  0599  1903               	btfsc	3,2
  2076  059A  2D9C               	goto	u1811
  2077  059B  2D9D               	goto	u1810
  2078  059C                     u1811:
  2079  059C  2DAC               	goto	l1813
  2080  059D                     u1810:
  2081  059D                     l1807:
  2082  059D  0A33               	incf	___flmul@bexp,w
  2083  059E  1D03               	btfss	3,2
  2084  059F  2DA1               	goto	u1821
  2085  05A0  2DA2               	goto	u1820
  2086  05A1                     u1821:
  2087  05A1  2DAA               	goto	l1811
  2088  05A2                     u1820:
  2089  05A2                     l1809:
  2090  05A2  3000               	movlw	0
  2091  05A3  00A3               	movwf	___flmul@b+3
  2092  05A4  3000               	movlw	0
  2093  05A5  00A2               	movwf	___flmul@b+2
  2094  05A6  3000               	movlw	0
  2095  05A7  00A1               	movwf	___flmul@b+1
  2096  05A8  3000               	movlw	0
  2097  05A9  00A0               	movwf	___flmul@b
  2098  05AA                     l1811:
  2099  05AA  17A2               	bsf	___flmul@b+2,7
  2100  05AB  2DB4               	goto	l1815
  2101  05AC                     l1813:
  2102  05AC  3000               	movlw	0
  2103  05AD  00A3               	movwf	___flmul@b+3
  2104  05AE  3000               	movlw	0
  2105  05AF  00A2               	movwf	___flmul@b+2
  2106  05B0  3000               	movlw	0
  2107  05B1  00A1               	movwf	___flmul@b+1
  2108  05B2  3000               	movlw	0
  2109  05B3  00A0               	movwf	___flmul@b
  2110  05B4                     l1815:
  2111  05B4  0827               	movf	___flmul@a+3,w
  2112  05B5  3980               	andlw	128
  2113  05B6  00A8               	movwf	??___flmul
  2114  05B7  0828               	movf	??___flmul,w
  2115  05B8  06AD               	xorwf	___flmul@sign,f
  2116  05B9                     l1817:
  2117  05B9  3527               	lslf	___flmul@a+3,w
  2118  05BA  00A8               	movwf	??___flmul
  2119  05BB  0828               	movf	??___flmul,w
  2120  05BC  00B2               	movwf	___flmul@aexp
  2121  05BD                     l1819:
  2122  05BD  1FA6               	btfss	___flmul@a+2,7
  2123  05BE  2DC0               	goto	u1831
  2124  05BF  2DC1               	goto	u1830
  2125  05C0                     u1831:
  2126  05C0  2DC2               	goto	l1823
  2127  05C1                     u1830:
  2128  05C1                     l1821:
  2129  05C1  1432               	bsf	___flmul@aexp,0
  2130  05C2                     l1823:
  2131  05C2  0832               	movf	___flmul@aexp,w
  2132  05C3  1903               	btfsc	3,2
  2133  05C4  2DC6               	goto	u1841
  2134  05C5  2DC7               	goto	u1840
  2135  05C6                     u1841:
  2136  05C6  2DD6               	goto	l1831
  2137  05C7                     u1840:
  2138  05C7                     l1825:
  2139  05C7  0A32               	incf	___flmul@aexp,w
  2140  05C8  1D03               	btfss	3,2
  2141  05C9  2DCB               	goto	u1851
  2142  05CA  2DCC               	goto	u1850
  2143  05CB                     u1851:
  2144  05CB  2DD4               	goto	l1829
  2145  05CC                     u1850:
  2146  05CC                     l1827:
  2147  05CC  3000               	movlw	0
  2148  05CD  00A7               	movwf	___flmul@a+3
  2149  05CE  3000               	movlw	0
  2150  05CF  00A6               	movwf	___flmul@a+2
  2151  05D0  3000               	movlw	0
  2152  05D1  00A5               	movwf	___flmul@a+1
  2153  05D2  3000               	movlw	0
  2154  05D3  00A4               	movwf	___flmul@a
  2155  05D4                     l1829:
  2156  05D4  17A6               	bsf	___flmul@a+2,7
  2157  05D5  2DDE               	goto	l1833
  2158  05D6                     l1831:
  2159  05D6  3000               	movlw	0
  2160  05D7  00A7               	movwf	___flmul@a+3
  2161  05D8  3000               	movlw	0
  2162  05D9  00A6               	movwf	___flmul@a+2
  2163  05DA  3000               	movlw	0
  2164  05DB  00A5               	movwf	___flmul@a+1
  2165  05DC  3000               	movlw	0
  2166  05DD  00A4               	movwf	___flmul@a
  2167  05DE                     l1833:
  2168  05DE  0832               	movf	___flmul@aexp,w
  2169  05DF  1903               	btfsc	3,2
  2170  05E0  2DE2               	goto	u1861
  2171  05E1  2DE3               	goto	u1860
  2172  05E2                     u1861:
  2173  05E2  2DE8               	goto	l1837
  2174  05E3                     u1860:
  2175  05E3                     l1835:
  2176  05E3  0833               	movf	___flmul@bexp,w
  2177  05E4  1D03               	btfss	3,2
  2178  05E5  2DE7               	goto	u1871
  2179  05E6  2DE8               	goto	u1870
  2180  05E7                     u1871:
  2181  05E7  2DF1               	goto	l1841
  2182  05E8                     u1870:
  2183  05E8                     l1837:
  2184  05E8  3000               	movlw	0
  2185  05E9  00A3               	movwf	?___flmul+3
  2186  05EA  3000               	movlw	0
  2187  05EB  00A2               	movwf	?___flmul+2
  2188  05EC  3000               	movlw	0
  2189  05ED  00A1               	movwf	?___flmul+1
  2190  05EE  3000               	movlw	0
  2191  05EF  00A0               	movwf	?___flmul
  2192  05F0  2FDF               	goto	l762
  2193  05F1                     l1841:
  2194  05F1  0820               	movf	___flmul@b,w
  2195  05F2  00A8               	movwf	??___flmul
  2196  05F3  0828               	movf	??___flmul,w
  2197  05F4  00F0               	movwf	__Umul8_16@multiplicand
  2198  05F5  0826               	movf	___flmul@a+2,w
  2199  05F6  318F  2731  3185   	fcall	__Umul8_16
  2200  05F9  0871               	movf	?__Umul8_16+1,w
  2201  05FA  0140               	movlb	0	; select bank0
  2202  05FB  00B9               	movwf	___flmul@temp+1
  2203  05FC  0870               	movf	?__Umul8_16,w
  2204  05FD  00B8               	movwf	___flmul@temp
  2205  05FE                     l1843:
  2206  05FE  0838               	movf	___flmul@temp,w
  2207  05FF  00A8               	movwf	??___flmul
  2208  0600  01A9               	clrf	??___flmul+1
  2209  0601  01AA               	clrf	??___flmul+2
  2210  0602  01AB               	clrf	??___flmul+3
  2211  0603  082B               	movf	??___flmul+3,w
  2212  0604  00B1               	movwf	___flmul@grs+3
  2213  0605  082A               	movf	??___flmul+2,w
  2214  0606  00B0               	movwf	___flmul@grs+2
  2215  0607  0829               	movf	??___flmul+1,w
  2216  0608  00AF               	movwf	___flmul@grs+1
  2217  0609  0828               	movf	??___flmul,w
  2218  060A  00AE               	movwf	___flmul@grs
  2219  060B                     l1845:
  2220  060B  0839               	movf	___flmul@temp+1,w
  2221  060C  00A8               	movwf	??___flmul
  2222  060D  01A9               	clrf	??___flmul+1
  2223  060E  01AA               	clrf	??___flmul+2
  2224  060F  01AB               	clrf	??___flmul+3
  2225  0610  082B               	movf	??___flmul+3,w
  2226  0611  00B7               	movwf	___flmul@prod+3
  2227  0612  082A               	movf	??___flmul+2,w
  2228  0613  00B6               	movwf	___flmul@prod+2
  2229  0614  0829               	movf	??___flmul+1,w
  2230  0615  00B5               	movwf	___flmul@prod+1
  2231  0616  0828               	movf	??___flmul,w
  2232  0617  00B4               	movwf	___flmul@prod
  2233  0618  0821               	movf	___flmul@b+1,w
  2234  0619  00A8               	movwf	??___flmul
  2235  061A  0828               	movf	??___flmul,w
  2236  061B  00F0               	movwf	__Umul8_16@multiplicand
  2237  061C  0825               	movf	___flmul@a+1,w
  2238  061D  318F  2731  3185   	fcall	__Umul8_16
  2239  0620  0871               	movf	?__Umul8_16+1,w
  2240  0621  0140               	movlb	0	; select bank0
  2241  0622  00B9               	movwf	___flmul@temp+1
  2242  0623  0870               	movf	?__Umul8_16,w
  2243  0624  00B8               	movwf	___flmul@temp
  2244  0625                     l1847:
  2245  0625  0838               	movf	___flmul@temp,w
  2246  0626  00A8               	movwf	??___flmul
  2247  0627  01A9               	clrf	??___flmul+1
  2248  0628  01AA               	clrf	??___flmul+2
  2249  0629  01AB               	clrf	??___flmul+3
  2250  062A  0828               	movf	??___flmul,w
  2251  062B  07AE               	addwf	___flmul@grs,f
  2252  062C  0829               	movf	??___flmul+1,w
  2253  062D  3DAF               	addwfc	___flmul@grs+1,f
  2254  062E  082A               	movf	??___flmul+2,w
  2255  062F  3DB0               	addwfc	___flmul@grs+2,f
  2256  0630  082B               	movf	??___flmul+3,w
  2257  0631  3DB1               	addwfc	___flmul@grs+3,f
  2258  0632                     l1849:
  2259  0632  0839               	movf	___flmul@temp+1,w
  2260  0633  00A8               	movwf	??___flmul
  2261  0634  01A9               	clrf	??___flmul+1
  2262  0635  01AA               	clrf	??___flmul+2
  2263  0636  01AB               	clrf	??___flmul+3
  2264  0637  0828               	movf	??___flmul,w
  2265  0638  07B4               	addwf	___flmul@prod,f
  2266  0639  0829               	movf	??___flmul+1,w
  2267  063A  3DB5               	addwfc	___flmul@prod+1,f
  2268  063B  082A               	movf	??___flmul+2,w
  2269  063C  3DB6               	addwfc	___flmul@prod+2,f
  2270  063D  082B               	movf	??___flmul+3,w
  2271  063E  3DB7               	addwfc	___flmul@prod+3,f
  2272  063F  0822               	movf	___flmul@b+2,w
  2273  0640  00A8               	movwf	??___flmul
  2274  0641  0828               	movf	??___flmul,w
  2275  0642  00F0               	movwf	__Umul8_16@multiplicand
  2276  0643  0824               	movf	___flmul@a,w
  2277  0644  318F  2731  3185   	fcall	__Umul8_16
  2278  0647  0871               	movf	?__Umul8_16+1,w
  2279  0648  0140               	movlb	0	; select bank0
  2280  0649  00B9               	movwf	___flmul@temp+1
  2281  064A  0870               	movf	?__Umul8_16,w
  2282  064B  00B8               	movwf	___flmul@temp
  2283  064C                     l1851:
  2284  064C  0838               	movf	___flmul@temp,w
  2285  064D  00A8               	movwf	??___flmul
  2286  064E  01A9               	clrf	??___flmul+1
  2287  064F  01AA               	clrf	??___flmul+2
  2288  0650  01AB               	clrf	??___flmul+3
  2289  0651  0828               	movf	??___flmul,w
  2290  0652  07AE               	addwf	___flmul@grs,f
  2291  0653  0829               	movf	??___flmul+1,w
  2292  0654  3DAF               	addwfc	___flmul@grs+1,f
  2293  0655  082A               	movf	??___flmul+2,w
  2294  0656  3DB0               	addwfc	___flmul@grs+2,f
  2295  0657  082B               	movf	??___flmul+3,w
  2296  0658  3DB1               	addwfc	___flmul@grs+3,f
  2297  0659                     l1853:
  2298  0659  0839               	movf	___flmul@temp+1,w
  2299  065A  00A8               	movwf	??___flmul
  2300  065B  01A9               	clrf	??___flmul+1
  2301  065C  01AA               	clrf	??___flmul+2
  2302  065D  01AB               	clrf	??___flmul+3
  2303  065E  0828               	movf	??___flmul,w
  2304  065F  07B4               	addwf	___flmul@prod,f
  2305  0660  0829               	movf	??___flmul+1,w
  2306  0661  3DB5               	addwfc	___flmul@prod+1,f
  2307  0662  082A               	movf	??___flmul+2,w
  2308  0663  3DB6               	addwfc	___flmul@prod+2,f
  2309  0664  082B               	movf	??___flmul+3,w
  2310  0665  3DB7               	addwfc	___flmul@prod+3,f
  2311  0666                     l1855:
  2312  0666  3008               	movlw	8
  2313  0667                     u1885:
  2314  0667  35AE               	lslf	___flmul@grs,f
  2315  0668  0DAF               	rlf	___flmul@grs+1,f
  2316  0669  0DB0               	rlf	___flmul@grs+2,f
  2317  066A  0DB1               	rlf	___flmul@grs+3,f
  2318  066B  0B89               	decfsz	9,f
  2319  066C  2E67               	goto	u1885
  2320  066D                     l1857:
  2321  066D  0821               	movf	___flmul@b+1,w
  2322  066E  00A8               	movwf	??___flmul
  2323  066F  0828               	movf	??___flmul,w
  2324  0670  00F0               	movwf	__Umul8_16@multiplicand
  2325  0671  0824               	movf	___flmul@a,w
  2326  0672  318F  2731  3185   	fcall	__Umul8_16
  2327  0675  0871               	movf	?__Umul8_16+1,w
  2328  0676  0140               	movlb	0	; select bank0
  2329  0677  00B9               	movwf	___flmul@temp+1
  2330  0678  0870               	movf	?__Umul8_16,w
  2331  0679  00B8               	movwf	___flmul@temp
  2332  067A                     l1859:
  2333  067A  0838               	movf	___flmul@temp,w
  2334  067B  07AE               	addwf	___flmul@grs,f
  2335  067C  0839               	movf	___flmul@temp+1,w
  2336  067D  3DAF               	addwfc	___flmul@grs+1,f
  2337  067E  3000               	movlw	0
  2338  067F  3DB0               	addwfc	___flmul@grs+2,f
  2339  0680  3DB1               	addwfc	___flmul@grs+3,f
  2340  0681                     l1861:
  2341  0681  0820               	movf	___flmul@b,w
  2342  0682  00A8               	movwf	??___flmul
  2343  0683  0828               	movf	??___flmul,w
  2344  0684  00F0               	movwf	__Umul8_16@multiplicand
  2345  0685  0825               	movf	___flmul@a+1,w
  2346  0686  318F  2731  3185   	fcall	__Umul8_16
  2347  0689  0871               	movf	?__Umul8_16+1,w
  2348  068A  0140               	movlb	0	; select bank0
  2349  068B  00B9               	movwf	___flmul@temp+1
  2350  068C  0870               	movf	?__Umul8_16,w
  2351  068D  00B8               	movwf	___flmul@temp
  2352  068E                     l1863:
  2353  068E  0838               	movf	___flmul@temp,w
  2354  068F  07AE               	addwf	___flmul@grs,f
  2355  0690  0839               	movf	___flmul@temp+1,w
  2356  0691  3DAF               	addwfc	___flmul@grs+1,f
  2357  0692  3000               	movlw	0
  2358  0693  3DB0               	addwfc	___flmul@grs+2,f
  2359  0694  3DB1               	addwfc	___flmul@grs+3,f
  2360  0695                     l1865:
  2361  0695  3008               	movlw	8
  2362  0696                     u1895:
  2363  0696  35AE               	lslf	___flmul@grs,f
  2364  0697  0DAF               	rlf	___flmul@grs+1,f
  2365  0698  0DB0               	rlf	___flmul@grs+2,f
  2366  0699  0DB1               	rlf	___flmul@grs+3,f
  2367  069A  0B89               	decfsz	9,f
  2368  069B  2E96               	goto	u1895
  2369  069C  0820               	movf	___flmul@b,w
  2370  069D  00A8               	movwf	??___flmul
  2371  069E  0828               	movf	??___flmul,w
  2372  069F  00F0               	movwf	__Umul8_16@multiplicand
  2373  06A0  0824               	movf	___flmul@a,w
  2374  06A1  318F  2731  3185   	fcall	__Umul8_16
  2375  06A4  0871               	movf	?__Umul8_16+1,w
  2376  06A5  0140               	movlb	0	; select bank0
  2377  06A6  00B9               	movwf	___flmul@temp+1
  2378  06A7  0870               	movf	?__Umul8_16,w
  2379  06A8  00B8               	movwf	___flmul@temp
  2380  06A9                     l1867:
  2381  06A9  0838               	movf	___flmul@temp,w
  2382  06AA  07AE               	addwf	___flmul@grs,f
  2383  06AB  0839               	movf	___flmul@temp+1,w
  2384  06AC  3DAF               	addwfc	___flmul@grs+1,f
  2385  06AD  3000               	movlw	0
  2386  06AE  3DB0               	addwfc	___flmul@grs+2,f
  2387  06AF  3DB1               	addwfc	___flmul@grs+3,f
  2388  06B0                     l1869:
  2389  06B0  0821               	movf	___flmul@b+1,w
  2390  06B1  00A8               	movwf	??___flmul
  2391  06B2  0828               	movf	??___flmul,w
  2392  06B3  00F0               	movwf	__Umul8_16@multiplicand
  2393  06B4  0826               	movf	___flmul@a+2,w
  2394  06B5  318F  2731  3185   	fcall	__Umul8_16
  2395  06B8  0871               	movf	?__Umul8_16+1,w
  2396  06B9  0140               	movlb	0	; select bank0
  2397  06BA  00B9               	movwf	___flmul@temp+1
  2398  06BB  0870               	movf	?__Umul8_16,w
  2399  06BC  00B8               	movwf	___flmul@temp
  2400  06BD  0838               	movf	___flmul@temp,w
  2401  06BE  07B4               	addwf	___flmul@prod,f
  2402  06BF  0839               	movf	___flmul@temp+1,w
  2403  06C0  3DB5               	addwfc	___flmul@prod+1,f
  2404  06C1  3000               	movlw	0
  2405  06C2  3DB6               	addwfc	___flmul@prod+2,f
  2406  06C3  3DB7               	addwfc	___flmul@prod+3,f
  2407  06C4                     l1871:
  2408  06C4  0822               	movf	___flmul@b+2,w
  2409  06C5  00A8               	movwf	??___flmul
  2410  06C6  0828               	movf	??___flmul,w
  2411  06C7  00F0               	movwf	__Umul8_16@multiplicand
  2412  06C8  0825               	movf	___flmul@a+1,w
  2413  06C9  318F  2731  3185   	fcall	__Umul8_16
  2414  06CC  0871               	movf	?__Umul8_16+1,w
  2415  06CD  0140               	movlb	0	; select bank0
  2416  06CE  00B9               	movwf	___flmul@temp+1
  2417  06CF  0870               	movf	?__Umul8_16,w
  2418  06D0  00B8               	movwf	___flmul@temp
  2419  06D1                     l1873:
  2420  06D1  0838               	movf	___flmul@temp,w
  2421  06D2  07B4               	addwf	___flmul@prod,f
  2422  06D3  0839               	movf	___flmul@temp+1,w
  2423  06D4  3DB5               	addwfc	___flmul@prod+1,f
  2424  06D5  3000               	movlw	0
  2425  06D6  3DB6               	addwfc	___flmul@prod+2,f
  2426  06D7  3DB7               	addwfc	___flmul@prod+3,f
  2427  06D8  0822               	movf	___flmul@b+2,w
  2428  06D9  00A8               	movwf	??___flmul
  2429  06DA  0828               	movf	??___flmul,w
  2430  06DB  00F0               	movwf	__Umul8_16@multiplicand
  2431  06DC  0826               	movf	___flmul@a+2,w
  2432  06DD  318F  2731  3185   	fcall	__Umul8_16
  2433  06E0  0871               	movf	?__Umul8_16+1,w
  2434  06E1  0140               	movlb	0	; select bank0
  2435  06E2  00B9               	movwf	___flmul@temp+1
  2436  06E3  0870               	movf	?__Umul8_16,w
  2437  06E4  00B8               	movwf	___flmul@temp
  2438  06E5                     l1875:
  2439  06E5  0838               	movf	___flmul@temp,w
  2440  06E6  00A8               	movwf	??___flmul
  2441  06E7  0839               	movf	___flmul@temp+1,w
  2442  06E8  00A9               	movwf	??___flmul+1
  2443  06E9  01AA               	clrf	??___flmul+2
  2444  06EA  01AB               	clrf	??___flmul+3
  2445  06EB  3008               	movlw	8
  2446  06EC                     u1905:
  2447  06EC  35A8               	lslf	??___flmul,f
  2448  06ED  0DA9               	rlf	??___flmul+1,f
  2449  06EE  0DAA               	rlf	??___flmul+2,f
  2450  06EF  0DAB               	rlf	??___flmul+3,f
  2451  06F0                     u1900:
  2452  06F0  0B89               	decfsz	9,f
  2453  06F1  2EEC               	goto	u1905
  2454  06F2  0828               	movf	??___flmul,w
  2455  06F3  07B4               	addwf	___flmul@prod,f
  2456  06F4  0829               	movf	??___flmul+1,w
  2457  06F5  3DB5               	addwfc	___flmul@prod+1,f
  2458  06F6  082A               	movf	??___flmul+2,w
  2459  06F7  3DB6               	addwfc	___flmul@prod+2,f
  2460  06F8  082B               	movf	??___flmul+3,w
  2461  06F9  3DB7               	addwfc	___flmul@prod+3,f
  2462  06FA                     l1877:
  2463  06FA  082E               	movf	___flmul@grs,w
  2464  06FB  00A8               	movwf	??___flmul
  2465  06FC  082F               	movf	___flmul@grs+1,w
  2466  06FD  00A9               	movwf	??___flmul+1
  2467  06FE  0830               	movf	___flmul@grs+2,w
  2468  06FF  00AA               	movwf	??___flmul+2
  2469  0700  0831               	movf	___flmul@grs+3,w
  2470  0701  00AB               	movwf	??___flmul+3
  2471  0702  3018               	movlw	24
  2472  0703                     u1915:
  2473  0703  36AB               	lsrf	??___flmul+3,f
  2474  0704  0CAA               	rrf	??___flmul+2,f
  2475  0705  0CA9               	rrf	??___flmul+1,f
  2476  0706  0CA8               	rrf	??___flmul,f
  2477  0707                     u1910:
  2478  0707  0B89               	decfsz	9,f
  2479  0708  2F03               	goto	u1915
  2480  0709  0828               	movf	??___flmul,w
  2481  070A  07B4               	addwf	___flmul@prod,f
  2482  070B  0829               	movf	??___flmul+1,w
  2483  070C  3DB5               	addwfc	___flmul@prod+1,f
  2484  070D  082A               	movf	??___flmul+2,w
  2485  070E  3DB6               	addwfc	___flmul@prod+2,f
  2486  070F  082B               	movf	??___flmul+3,w
  2487  0710  3DB7               	addwfc	___flmul@prod+3,f
  2488  0711                     l1879:
  2489  0711  3008               	movlw	8
  2490  0712                     u1925:
  2491  0712  35AE               	lslf	___flmul@grs,f
  2492  0713  0DAF               	rlf	___flmul@grs+1,f
  2493  0714  0DB0               	rlf	___flmul@grs+2,f
  2494  0715  0DB1               	rlf	___flmul@grs+3,f
  2495  0716  0B89               	decfsz	9,f
  2496  0717  2F12               	goto	u1925
  2497  0718                     l1881:
  2498  0718  0833               	movf	___flmul@bexp,w
  2499  0719  0732               	addwf	___flmul@aexp,w
  2500  071A  00A8               	movwf	??___flmul
  2501  071B  01A9               	clrf	??___flmul+1
  2502  071C  0DA9               	rlf	??___flmul+1,f
  2503  071D  0828               	movf	??___flmul,w
  2504  071E  3E82               	addlw	130
  2505  071F  00B8               	movwf	___flmul@temp
  2506  0720  30FF               	movlw	255
  2507  0721  3D29               	addwfc	??___flmul+1,w
  2508  0722  00B9               	movwf	___flmul@temp+1
  2509  0723  2F3B               	goto	l1893
  2510  0724                     l1883:
  2511  0724  3001               	movlw	1
  2512  0725                     u1935:
  2513  0725  35B4               	lslf	___flmul@prod,f
  2514  0726  0DB5               	rlf	___flmul@prod+1,f
  2515  0727  0DB6               	rlf	___flmul@prod+2,f
  2516  0728  0DB7               	rlf	___flmul@prod+3,f
  2517  0729  0B89               	decfsz	9,f
  2518  072A  2F25               	goto	u1935
  2519  072B                     l1885:
  2520  072B  1FB1               	btfss	___flmul@grs+3,7
  2521  072C  2F2E               	goto	u1941
  2522  072D  2F2F               	goto	u1940
  2523  072E                     u1941:
  2524  072E  2F30               	goto	l1889
  2525  072F                     u1940:
  2526  072F                     l1887:
  2527  072F  1434               	bsf	___flmul@prod,0
  2528  0730                     l1889:
  2529  0730  3001               	movlw	1
  2530  0731                     u1955:
  2531  0731  35AE               	lslf	___flmul@grs,f
  2532  0732  0DAF               	rlf	___flmul@grs+1,f
  2533  0733  0DB0               	rlf	___flmul@grs+2,f
  2534  0734  0DB1               	rlf	___flmul@grs+3,f
  2535  0735  0B89               	decfsz	9,f
  2536  0736  2F31               	goto	u1955
  2537  0737                     l1891:
  2538  0737  30FF               	movlw	255
  2539  0738  07B8               	addwf	___flmul@temp,f
  2540  0739  30FF               	movlw	255
  2541  073A  3DB9               	addwfc	___flmul@temp+1,f
  2542  073B                     l1893:
  2543  073B  1FB6               	btfss	___flmul@prod+2,7
  2544  073C  2F3E               	goto	u1961
  2545  073D  2F3F               	goto	u1960
  2546  073E                     u1961:
  2547  073E  2F24               	goto	l1883
  2548  073F                     u1960:
  2549  073F                     l1895:
  2550  073F  01B2               	clrf	___flmul@aexp
  2551  0740                     l1897:
  2552  0740  1FB1               	btfss	___flmul@grs+3,7
  2553  0741  2F43               	goto	u1971
  2554  0742  2F44               	goto	u1970
  2555  0743                     u1971:
  2556  0743  2F60               	goto	l1905
  2557  0744                     u1970:
  2558  0744                     l1899:
  2559  0744  30FF               	movlw	255
  2560  0745  052E               	andwf	___flmul@grs,w
  2561  0746  00A8               	movwf	??___flmul
  2562  0747  30FF               	movlw	255
  2563  0748  052F               	andwf	___flmul@grs+1,w
  2564  0749  00A9               	movwf	??___flmul+1
  2565  074A  30FF               	movlw	255
  2566  074B  0530               	andwf	___flmul@grs+2,w
  2567  074C  00AA               	movwf	??___flmul+2
  2568  074D  307F               	movlw	127
  2569  074E  0531               	andwf	___flmul@grs+3,w
  2570  074F  00AB               	movwf	??___flmul+3
  2571  0750  082B               	movf	??___flmul+3,w
  2572  0751  042A               	iorwf	??___flmul+2,w
  2573  0752  0429               	iorwf	??___flmul+1,w
  2574  0753  0428               	iorwf	??___flmul,w
  2575  0754  1903               	skipnz
  2576  0755  2F57               	goto	u1981
  2577  0756  2F58               	goto	u1980
  2578  0757                     u1981:
  2579  0757  2F5B               	goto	l768
  2580  0758                     u1980:
  2581  0758                     l1901:
  2582  0758  01B2               	clrf	___flmul@aexp
  2583  0759  0AB2               	incf	___flmul@aexp,f
  2584  075A  2F60               	goto	l1905
  2585  075B                     l768:
  2586  075B  1C34               	btfss	___flmul@prod,0
  2587  075C  2F5E               	goto	u1991
  2588  075D  2F5F               	goto	u1990
  2589  075E                     u1991:
  2590  075E  2F60               	goto	l1905
  2591  075F                     u1990:
  2592  075F  2F58               	goto	l1901
  2593  0760                     l1905:
  2594  0760  0832               	movf	___flmul@aexp,w
  2595  0761  1903               	btfsc	3,2
  2596  0762  2F64               	goto	u2001
  2597  0763  2F65               	goto	u2000
  2598  0764                     u2001:
  2599  0764  2F8D               	goto	l1915
  2600  0765                     u2000:
  2601  0765                     l1907:
  2602  0765  3001               	movlw	1
  2603  0766  07B4               	addwf	___flmul@prod,f
  2604  0767  3000               	movlw	0
  2605  0768  3DB5               	addwfc	___flmul@prod+1,f
  2606  0769  3000               	movlw	0
  2607  076A  3DB6               	addwfc	___flmul@prod+2,f
  2608  076B  3000               	movlw	0
  2609  076C  3DB7               	addwfc	___flmul@prod+3,f
  2610  076D                     l1909:
  2611  076D  1C37               	btfss	___flmul@prod+3,0
  2612  076E  2F70               	goto	u2011
  2613  076F  2F71               	goto	u2010
  2614  0770                     u2011:
  2615  0770  2F8D               	goto	l1915
  2616  0771                     u2010:
  2617  0771                     l1911:
  2618  0771  0834               	movf	___flmul@prod,w
  2619  0772  00A8               	movwf	??___flmul
  2620  0773  0835               	movf	___flmul@prod+1,w
  2621  0774  00A9               	movwf	??___flmul+1
  2622  0775  0836               	movf	___flmul@prod+2,w
  2623  0776  00AA               	movwf	??___flmul+2
  2624  0777  0837               	movf	___flmul@prod+3,w
  2625  0778  00AB               	movwf	??___flmul+3
  2626  0779  3001               	movlw	1
  2627  077A  00AC               	movwf	??___flmul+4
  2628  077B                     u2025:
  2629  077B  37AB               	asrf	??___flmul+3,f
  2630  077C  0CAA               	rrf	??___flmul+2,f
  2631  077D  0CA9               	rrf	??___flmul+1,f
  2632  077E  0CA8               	rrf	??___flmul,f
  2633  077F                     u2020:
  2634  077F  0BAC               	decfsz	??___flmul+4,f
  2635  0780  2F7B               	goto	u2025
  2636  0781  082B               	movf	??___flmul+3,w
  2637  0782  00B7               	movwf	___flmul@prod+3
  2638  0783  082A               	movf	??___flmul+2,w
  2639  0784  00B6               	movwf	___flmul@prod+2
  2640  0785  0829               	movf	??___flmul+1,w
  2641  0786  00B5               	movwf	___flmul@prod+1
  2642  0787  0828               	movf	??___flmul,w
  2643  0788  00B4               	movwf	___flmul@prod
  2644  0789                     l1913:
  2645  0789  3001               	movlw	1
  2646  078A  07B8               	addwf	___flmul@temp,f
  2647  078B  3000               	movlw	0
  2648  078C  3DB9               	addwfc	___flmul@temp+1,f
  2649  078D                     l1915:
  2650  078D  0839               	movf	___flmul@temp+1,w
  2651  078E  3A80               	xorlw	128
  2652  078F  00A8               	movwf	??___flmul
  2653  0790  3080               	movlw	128
  2654  0791  0228               	subwf	??___flmul,w
  2655  0792  1D03               	skipz
  2656  0793  2F96               	goto	u2035
  2657  0794  30FF               	movlw	255
  2658  0795  0238               	subwf	___flmul@temp,w
  2659  0796                     u2035:
  2660  0796  1C03               	skipc
  2661  0797  2F99               	goto	u2031
  2662  0798  2F9A               	goto	u2030
  2663  0799                     u2031:
  2664  0799  2FA4               	goto	l1919
  2665  079A                     u2030:
  2666  079A                     l1917:
  2667  079A  307F               	movlw	127
  2668  079B  0140               	movlb	0	; select bank0
  2669  079C  00B7               	movwf	___flmul@prod+3
  2670  079D  3080               	movlw	128
  2671  079E  00B6               	movwf	___flmul@prod+2
  2672  079F  3000               	movlw	0
  2673  07A0  00B5               	movwf	___flmul@prod+1
  2674  07A1  3000               	movlw	0
  2675  07A2  00B4               	movwf	___flmul@prod
  2676  07A3  2FD3               	goto	l774
  2677  07A4                     l1919:
  2678  07A4  0140               	movlb	0	; select bank0
  2679  07A5  0839               	movf	___flmul@temp+1,w
  2680  07A6  3A80               	xorlw	128
  2681  07A7  00A8               	movwf	??___flmul
  2682  07A8  3080               	movlw	128
  2683  07A9  0228               	subwf	??___flmul,w
  2684  07AA  1D03               	skipz
  2685  07AB  2FAE               	goto	u2045
  2686  07AC  3001               	movlw	1
  2687  07AD  0238               	subwf	___flmul@temp,w
  2688  07AE                     u2045:
  2689  07AE  1803               	skipnc
  2690  07AF  2FB1               	goto	u2041
  2691  07B0  2FB2               	goto	u2040
  2692  07B1                     u2041:
  2693  07B1  2FBD               	goto	l1925
  2694  07B2                     u2040:
  2695  07B2                     l1921:
  2696  07B2  3000               	movlw	0
  2697  07B3  0140               	movlb	0	; select bank0
  2698  07B4  00B7               	movwf	___flmul@prod+3
  2699  07B5  3000               	movlw	0
  2700  07B6  00B6               	movwf	___flmul@prod+2
  2701  07B7  3000               	movlw	0
  2702  07B8  00B5               	movwf	___flmul@prod+1
  2703  07B9  3000               	movlw	0
  2704  07BA  00B4               	movwf	___flmul@prod
  2705  07BB                     l1923:
  2706  07BB  01AD               	clrf	___flmul@sign
  2707  07BC  2FD3               	goto	l774
  2708  07BD                     l1925:
  2709  07BD  0140               	movlb	0	; select bank0
  2710  07BE  0838               	movf	___flmul@temp,w
  2711  07BF  00A8               	movwf	??___flmul
  2712  07C0  0828               	movf	??___flmul,w
  2713  07C1  00B3               	movwf	___flmul@bexp
  2714  07C2  30FF               	movlw	255
  2715  07C3  05B4               	andwf	___flmul@prod,f
  2716  07C4  30FF               	movlw	255
  2717  07C5  05B5               	andwf	___flmul@prod+1,f
  2718  07C6  307F               	movlw	127
  2719  07C7  05B6               	andwf	___flmul@prod+2,f
  2720  07C8  3000               	movlw	0
  2721  07C9  05B7               	andwf	___flmul@prod+3,f
  2722  07CA                     l1927:
  2723  07CA  1C33               	btfss	___flmul@bexp,0
  2724  07CB  2FCD               	goto	u2051
  2725  07CC  2FCE               	goto	u2050
  2726  07CD                     u2051:
  2727  07CD  2FCF               	goto	l1931
  2728  07CE                     u2050:
  2729  07CE                     l1929:
  2730  07CE  17B6               	bsf	___flmul@prod+2,7
  2731  07CF                     l1931:
  2732  07CF  3633               	lsrf	___flmul@bexp,w
  2733  07D0  00A8               	movwf	??___flmul
  2734  07D1  0828               	movf	??___flmul,w
  2735  07D2  00B7               	movwf	___flmul@prod+3
  2736  07D3                     l774:
  2737  07D3  082D               	movf	___flmul@sign,w
  2738  07D4  00A8               	movwf	??___flmul
  2739  07D5  0828               	movf	??___flmul,w
  2740  07D6  04B7               	iorwf	___flmul@prod+3,f
  2741  07D7                     l1933:
  2742  07D7  0837               	movf	___flmul@prod+3,w
  2743  07D8  00A3               	movwf	?___flmul+3
  2744  07D9  0836               	movf	___flmul@prod+2,w
  2745  07DA  00A2               	movwf	?___flmul+2
  2746  07DB  0835               	movf	___flmul@prod+1,w
  2747  07DC  00A1               	movwf	?___flmul+1
  2748  07DD  0834               	movf	___flmul@prod,w
  2749  07DE  00A0               	movwf	?___flmul
  2750  07DF                     l762:
  2751  07DF  0008               	return
  2752  07E0                     __end_of___flmul:
  2753                           
  2754                           	psect	text7
  2755  0F31                     __ptext7:	
  2756 ;; *************** function __Umul8_16 *****************
  2757 ;; Defined at:
  2758 ;;		line 4 in file "C:\Program Files\Microchip\xc8\v2.31\pic\sources\c99\common\Umul8_16.c"
  2759 ;; Parameters:    Size  Location     Type
  2760 ;;  multiplier      1    wreg     unsigned char 
  2761 ;;  multiplicand    1    0[COMMON] unsigned char 
  2762 ;; Auto vars:     Size  Location     Type
  2763 ;;  multiplier      1    8[COMMON] unsigned char 
  2764 ;;  word_mpld       2    6[COMMON] unsigned int 
  2765 ;;  product         2    4[COMMON] unsigned int 
  2766 ;; Return value:  Size  Location     Type
  2767 ;;                  2    0[COMMON] unsigned int 
  2768 ;; Registers used:
  2769 ;;		wreg, status,2, status,0
  2770 ;; Tracked objects:
  2771 ;;		On entry : 0/0
  2772 ;;		On exit  : 0/0
  2773 ;;		Unchanged: 0/0
  2774 ;; Data sizes:     COMMON   BANK0   BANK1   BANK2   BANK3   BANK4   BANK5   BANK6
  2775 ;;      Params:         2       0       0       0       0       0       0       0
  2776 ;;      Locals:         5       0       0       0       0       0       0       0
  2777 ;;      Temps:          2       0       0       0       0       0       0       0
  2778 ;;      Totals:         9       0       0       0       0       0       0       0
  2779 ;;Total ram usage:        9 bytes
  2780 ;; Hardware stack levels used:    1
  2781 ;; This function calls:
  2782 ;;		Nothing
  2783 ;; This function is called by:
  2784 ;;		___flmul
  2785 ;; This function uses a non-reentrant model
  2786 ;;
  2787                           
  2788                           
  2789                           ;psect for function __Umul8_16
  2790  0F31                     __Umul8_16:
  2791                           
  2792                           ;incstack = 0
  2793                           ; Regs used in __Umul8_16: [wreg+status,2+status,0]
  2794                           ;__Umul8_16@multiplier stored from wreg
  2795  0F31  00F8               	movwf	__Umul8_16@multiplier
  2796  0F32                     l1527:
  2797  0F32  01F4               	clrf	__Umul8_16@product
  2798  0F33  01F5               	clrf	__Umul8_16@product+1
  2799  0F34                     l1529:
  2800  0F34  0870               	movf	__Umul8_16@multiplicand,w
  2801  0F35  00F2               	movwf	??__Umul8_16
  2802  0F36  01F3               	clrf	??__Umul8_16+1
  2803  0F37  0872               	movf	??__Umul8_16,w
  2804  0F38  00F6               	movwf	__Umul8_16@word_mpld
  2805  0F39  0873               	movf	??__Umul8_16+1,w
  2806  0F3A  00F7               	movwf	__Umul8_16@word_mpld+1
  2807  0F3B                     l1531:
  2808  0F3B  1C78               	btfss	__Umul8_16@multiplier,0
  2809  0F3C  2F3E               	goto	u1321
  2810  0F3D  2F3F               	goto	u1320
  2811  0F3E                     u1321:
  2812  0F3E  2F43               	goto	l781
  2813  0F3F                     u1320:
  2814  0F3F                     l1533:
  2815  0F3F  0876               	movf	__Umul8_16@word_mpld,w
  2816  0F40  07F4               	addwf	__Umul8_16@product,f
  2817  0F41  0877               	movf	__Umul8_16@word_mpld+1,w
  2818  0F42  3DF5               	addwfc	__Umul8_16@product+1,f
  2819  0F43                     l781:
  2820  0F43  3001               	movlw	1
  2821  0F44                     u1335:
  2822  0F44  35F6               	lslf	__Umul8_16@word_mpld,f
  2823  0F45  0DF7               	rlf	__Umul8_16@word_mpld+1,f
  2824  0F46  0B89               	decfsz	9,f
  2825  0F47  2F44               	goto	u1335
  2826  0F48  1003               	clrc
  2827  0F49  0CF8               	rrf	__Umul8_16@multiplier,f
  2828  0F4A                     l1535:
  2829  0F4A  0878               	movf	__Umul8_16@multiplier,w
  2830  0F4B  1D03               	btfss	3,2
  2831  0F4C  2F4E               	goto	u1341
  2832  0F4D  2F4F               	goto	u1340
  2833  0F4E                     u1341:
  2834  0F4E  2F3B               	goto	l1531
  2835  0F4F                     u1340:
  2836  0F4F                     l1537:
  2837  0F4F  0875               	movf	__Umul8_16@product+1,w
  2838  0F50  00F1               	movwf	?__Umul8_16+1
  2839  0F51  0874               	movf	__Umul8_16@product,w
  2840  0F52  00F0               	movwf	?__Umul8_16
  2841  0F53                     l783:
  2842  0F53  0008               	return
  2843  0F54                     __end_of__Umul8_16:
  2844                           
  2845                           	psect	text8
  2846  03D5                     __ptext8:	
  2847 ;; *************** function ___fldiv *****************
  2848 ;; Defined at:
  2849 ;;		line 8 in file "C:\Program Files\Microchip\xc8\v2.31\pic\sources\c99\common\sprcdiv.c"
  2850 ;; Parameters:    Size  Location     Type
  2851 ;;  a               4   26[BANK0 ] unsigned int 
  2852 ;;  b               4   30[BANK0 ] unsigned int 
  2853 ;; Auto vars:     Size  Location     Type
  2854 ;;  grs             4   46[BANK0 ] unsigned long 
  2855 ;;  rem             4   39[BANK0 ] unsigned long 
  2856 ;;  new_exp         2   44[BANK0 ] int 
  2857 ;;  aexp            1   51[BANK0 ] unsigned char 
  2858 ;;  bexp            1   50[BANK0 ] unsigned char 
  2859 ;;  sign            1   43[BANK0 ] unsigned char 
  2860 ;; Return value:  Size  Location     Type
  2861 ;;                  4   26[BANK0 ] unsigned char 
  2862 ;; Registers used:
  2863 ;;		wreg, status,2, status,0
  2864 ;; Tracked objects:
  2865 ;;		On entry : 0/0
  2866 ;;		On exit  : 0/0
  2867 ;;		Unchanged: 0/0
  2868 ;; Data sizes:     COMMON   BANK0   BANK1   BANK2   BANK3   BANK4   BANK5   BANK6
  2869 ;;      Params:         0       8       0       0       0       0       0       0
  2870 ;;      Locals:         0      13       0       0       0       0       0       0
  2871 ;;      Temps:          0       5       0       0       0       0       0       0
  2872 ;;      Totals:         0      26       0       0       0       0       0       0
  2873 ;;Total ram usage:       26 bytes
  2874 ;; Hardware stack levels used:    1
  2875 ;; This function calls:
  2876 ;;		Nothing
  2877 ;; This function is called by:
  2878 ;;		_sensor_centro
  2879 ;;		_sensor_izquierdo
  2880 ;;		_sensor_derecho
  2881 ;; This function uses a non-reentrant model
  2882 ;;
  2883                           
  2884                           
  2885                           ;psect for function ___fldiv
  2886  03D5                     ___fldiv:
  2887  03D5                     l1657:	
  2888                           ;incstack = 0
  2889                           ; Regs used in ___fldiv: [wreg+status,2+status,0]
  2890                           
  2891  03D5  0140               	movlb	0	; select bank0
  2892  03D6  0841               	movf	___fldiv@b+3,w
  2893  03D7  3980               	andlw	128
  2894  03D8  00C2               	movwf	??___fldiv
  2895  03D9  0842               	movf	??___fldiv,w
  2896  03DA  00CB               	movwf	___fldiv@sign
  2897  03DB                     l1659:
  2898  03DB  3541               	lslf	___fldiv@b+3,w
  2899  03DC  00C2               	movwf	??___fldiv
  2900  03DD  0842               	movf	??___fldiv,w
  2901  03DE  00D2               	movwf	___fldiv@bexp
  2902  03DF                     l1661:
  2903  03DF  1FC0               	btfss	___fldiv@b+2,7
  2904  03E0  2BE2               	goto	u1511
  2905  03E1  2BE3               	goto	u1510
  2906  03E2                     u1511:
  2907  03E2  2BE4               	goto	l1665
  2908  03E3                     u1510:
  2909  03E3                     l1663:
  2910  03E3  1452               	bsf	___fldiv@bexp,0
  2911  03E4                     l1665:
  2912  03E4  0852               	movf	___fldiv@bexp,w
  2913  03E5  1903               	btfsc	3,2
  2914  03E6  2BE8               	goto	u1521
  2915  03E7  2BE9               	goto	u1520
  2916  03E8                     u1521:
  2917  03E8  2BF9               	goto	l1675
  2918  03E9                     u1520:
  2919  03E9                     l1667:
  2920  03E9  0A52               	incf	___fldiv@bexp,w
  2921  03EA  1D03               	btfss	3,2
  2922  03EB  2BED               	goto	u1531
  2923  03EC  2BEE               	goto	u1530
  2924  03ED                     u1531:
  2925  03ED  2BF6               	goto	l1671
  2926  03EE                     u1530:
  2927  03EE                     l1669:
  2928  03EE  3000               	movlw	0
  2929  03EF  00C1               	movwf	___fldiv@b+3
  2930  03F0  3000               	movlw	0
  2931  03F1  00C0               	movwf	___fldiv@b+2
  2932  03F2  3000               	movlw	0
  2933  03F3  00BF               	movwf	___fldiv@b+1
  2934  03F4  3000               	movlw	0
  2935  03F5  00BE               	movwf	___fldiv@b
  2936  03F6                     l1671:
  2937  03F6  17C0               	bsf	___fldiv@b+2,7
  2938  03F7                     l1673:
  2939  03F7  01C1               	clrf	___fldiv@b+3
  2940  03F8  2C01               	goto	l1677
  2941  03F9                     l1675:
  2942  03F9  3000               	movlw	0
  2943  03FA  00C1               	movwf	___fldiv@b+3
  2944  03FB  3000               	movlw	0
  2945  03FC  00C0               	movwf	___fldiv@b+2
  2946  03FD  3000               	movlw	0
  2947  03FE  00BF               	movwf	___fldiv@b+1
  2948  03FF  3000               	movlw	0
  2949  0400  00BE               	movwf	___fldiv@b
  2950  0401                     l1677:
  2951  0401  083D               	movf	___fldiv@a+3,w
  2952  0402  3980               	andlw	128
  2953  0403  00C2               	movwf	??___fldiv
  2954  0404  0842               	movf	??___fldiv,w
  2955  0405  06CB               	xorwf	___fldiv@sign,f
  2956  0406                     l1679:
  2957  0406  353D               	lslf	___fldiv@a+3,w
  2958  0407  00C2               	movwf	??___fldiv
  2959  0408  0842               	movf	??___fldiv,w
  2960  0409  00D3               	movwf	___fldiv@aexp
  2961  040A                     l1681:
  2962  040A  1FBC               	btfss	___fldiv@a+2,7
  2963  040B  2C0D               	goto	u1541
  2964  040C  2C0E               	goto	u1540
  2965  040D                     u1541:
  2966  040D  2C0F               	goto	l1685
  2967  040E                     u1540:
  2968  040E                     l1683:
  2969  040E  1453               	bsf	___fldiv@aexp,0
  2970  040F                     l1685:
  2971  040F  0853               	movf	___fldiv@aexp,w
  2972  0410  1903               	btfsc	3,2
  2973  0411  2C13               	goto	u1551
  2974  0412  2C14               	goto	u1550
  2975  0413                     u1551:
  2976  0413  2C24               	goto	l1695
  2977  0414                     u1550:
  2978  0414                     l1687:
  2979  0414  0A53               	incf	___fldiv@aexp,w
  2980  0415  1D03               	btfss	3,2
  2981  0416  2C18               	goto	u1561
  2982  0417  2C19               	goto	u1560
  2983  0418                     u1561:
  2984  0418  2C21               	goto	l1691
  2985  0419                     u1560:
  2986  0419                     l1689:
  2987  0419  3000               	movlw	0
  2988  041A  00BD               	movwf	___fldiv@a+3
  2989  041B  3000               	movlw	0
  2990  041C  00BC               	movwf	___fldiv@a+2
  2991  041D  3000               	movlw	0
  2992  041E  00BB               	movwf	___fldiv@a+1
  2993  041F  3000               	movlw	0
  2994  0420  00BA               	movwf	___fldiv@a
  2995  0421                     l1691:
  2996  0421  17BC               	bsf	___fldiv@a+2,7
  2997  0422                     l1693:
  2998  0422  01BD               	clrf	___fldiv@a+3
  2999  0423  2C2C               	goto	l722
  3000  0424                     l1695:
  3001  0424  3000               	movlw	0
  3002  0425  00BD               	movwf	___fldiv@a+3
  3003  0426  3000               	movlw	0
  3004  0427  00BC               	movwf	___fldiv@a+2
  3005  0428  3000               	movlw	0
  3006  0429  00BB               	movwf	___fldiv@a+1
  3007  042A  3000               	movlw	0
  3008  042B  00BA               	movwf	___fldiv@a
  3009  042C                     l722:
  3010  042C  083D               	movf	___fldiv@a+3,w
  3011  042D  043C               	iorwf	___fldiv@a+2,w
  3012  042E  043B               	iorwf	___fldiv@a+1,w
  3013  042F  043A               	iorwf	___fldiv@a,w
  3014  0430  1D03               	skipz
  3015  0431  2C33               	goto	u1571
  3016  0432  2C34               	goto	u1570
  3017  0433                     u1571:
  3018  0433  2C4D               	goto	l1705
  3019  0434                     u1570:
  3020  0434                     l1697:
  3021  0434  3000               	movlw	0
  3022  0435  00C1               	movwf	___fldiv@b+3
  3023  0436  3000               	movlw	0
  3024  0437  00C0               	movwf	___fldiv@b+2
  3025  0438  3000               	movlw	0
  3026  0439  00BF               	movwf	___fldiv@b+1
  3027  043A  3000               	movlw	0
  3028  043B  00BE               	movwf	___fldiv@b
  3029  043C  3080               	movlw	128
  3030  043D  04C0               	iorwf	___fldiv@b+2,f
  3031  043E  307F               	movlw	127
  3032  043F  04C1               	iorwf	___fldiv@b+3,f
  3033  0440                     l1699:
  3034  0440  084B               	movf	___fldiv@sign,w
  3035  0441  00C2               	movwf	??___fldiv
  3036  0442  0842               	movf	??___fldiv,w
  3037  0443  04C1               	iorwf	___fldiv@b+3,f
  3038  0444                     l1701:
  3039  0444  0841               	movf	___fldiv@b+3,w
  3040  0445  00BD               	movwf	?___fldiv+3
  3041  0446  0840               	movf	___fldiv@b+2,w
  3042  0447  00BC               	movwf	?___fldiv+2
  3043  0448  083F               	movf	___fldiv@b+1,w
  3044  0449  00BB               	movwf	?___fldiv+1
  3045  044A  083E               	movf	___fldiv@b,w
  3046  044B  00BA               	movwf	?___fldiv
  3047  044C  2D88               	goto	l724
  3048  044D                     l1705:
  3049  044D  0852               	movf	___fldiv@bexp,w
  3050  044E  1D03               	btfss	3,2
  3051  044F  2C51               	goto	u1581
  3052  0450  2C52               	goto	u1580
  3053  0451                     u1581:
  3054  0451  2C5B               	goto	l1711
  3055  0452                     u1580:
  3056  0452                     l1707:
  3057  0452  3000               	movlw	0
  3058  0453  00BD               	movwf	?___fldiv+3
  3059  0454  3000               	movlw	0
  3060  0455  00BC               	movwf	?___fldiv+2
  3061  0456  3000               	movlw	0
  3062  0457  00BB               	movwf	?___fldiv+1
  3063  0458  3000               	movlw	0
  3064  0459  00BA               	movwf	?___fldiv
  3065  045A  2D88               	goto	l724
  3066  045B                     l1711:
  3067  045B  0852               	movf	___fldiv@bexp,w
  3068  045C  00C2               	movwf	??___fldiv
  3069  045D  01C3               	clrf	??___fldiv+1
  3070  045E  0843               	movf	??___fldiv+1,w
  3071  045F  00C5               	movwf	??___fldiv+3
  3072  0460  0853               	movf	___fldiv@aexp,w
  3073  0461  0242               	subwf	??___fldiv,w
  3074  0462  00C4               	movwf	??___fldiv+2
  3075  0463  1C03               	skipc
  3076  0464  03C5               	decf	??___fldiv+3,f
  3077  0465  0844               	movf	??___fldiv+2,w
  3078  0466  3E7F               	addlw	127
  3079  0467  00CC               	movwf	___fldiv@new_exp
  3080  0468  3000               	movlw	0
  3081  0469  3D45               	addwfc	??___fldiv+3,w
  3082  046A  00CD               	movwf	___fldiv@new_exp+1
  3083  046B                     l1713:
  3084  046B  0841               	movf	___fldiv@b+3,w
  3085  046C  00CA               	movwf	___fldiv@rem+3
  3086  046D  0840               	movf	___fldiv@b+2,w
  3087  046E  00C9               	movwf	___fldiv@rem+2
  3088  046F  083F               	movf	___fldiv@b+1,w
  3089  0470  00C8               	movwf	___fldiv@rem+1
  3090  0471  083E               	movf	___fldiv@b,w
  3091  0472  00C7               	movwf	___fldiv@rem
  3092  0473                     l1715:
  3093  0473  3000               	movlw	0
  3094  0474  00C1               	movwf	___fldiv@b+3
  3095  0475  3000               	movlw	0
  3096  0476  00C0               	movwf	___fldiv@b+2
  3097  0477  3000               	movlw	0
  3098  0478  00BF               	movwf	___fldiv@b+1
  3099  0479  3000               	movlw	0
  3100  047A  00BE               	movwf	___fldiv@b
  3101  047B                     l1717:
  3102  047B  3000               	movlw	0
  3103  047C  00D1               	movwf	___fldiv@grs+3
  3104  047D  3000               	movlw	0
  3105  047E  00D0               	movwf	___fldiv@grs+2
  3106  047F  3000               	movlw	0
  3107  0480  00CF               	movwf	___fldiv@grs+1
  3108  0481  3000               	movlw	0
  3109  0482  00CE               	movwf	___fldiv@grs
  3110  0483                     l1719:
  3111  0483  01D3               	clrf	___fldiv@aexp
  3112  0484  2CC3               	goto	l1739
  3113  0485                     l1721:
  3114  0485  0853               	movf	___fldiv@aexp,w
  3115  0486  1903               	btfsc	3,2
  3116  0487  2C89               	goto	u1591
  3117  0488  2C8A               	goto	u1590
  3118  0489                     u1591:
  3119  0489  2CA4               	goto	l1731
  3120  048A                     u1590:
  3121  048A                     l1723:
  3122  048A  3001               	movlw	1
  3123  048B                     u1605:
  3124  048B  35C7               	lslf	___fldiv@rem,f
  3125  048C  0DC8               	rlf	___fldiv@rem+1,f
  3126  048D  0DC9               	rlf	___fldiv@rem+2,f
  3127  048E  0DCA               	rlf	___fldiv@rem+3,f
  3128  048F  0B89               	decfsz	9,f
  3129  0490  2C8B               	goto	u1605
  3130  0491  3001               	movlw	1
  3131  0492                     u1615:
  3132  0492  35BE               	lslf	___fldiv@b,f
  3133  0493  0DBF               	rlf	___fldiv@b+1,f
  3134  0494  0DC0               	rlf	___fldiv@b+2,f
  3135  0495  0DC1               	rlf	___fldiv@b+3,f
  3136  0496  0B89               	decfsz	9,f
  3137  0497  2C92               	goto	u1615
  3138  0498                     l1725:
  3139  0498  1FD1               	btfss	___fldiv@grs+3,7
  3140  0499  2C9B               	goto	u1621
  3141  049A  2C9C               	goto	u1620
  3142  049B                     u1621:
  3143  049B  2C9D               	goto	l1729
  3144  049C                     u1620:
  3145  049C                     l1727:
  3146  049C  143E               	bsf	___fldiv@b,0
  3147  049D                     l1729:
  3148  049D  3001               	movlw	1
  3149  049E                     u1635:
  3150  049E  35CE               	lslf	___fldiv@grs,f
  3151  049F  0DCF               	rlf	___fldiv@grs+1,f
  3152  04A0  0DD0               	rlf	___fldiv@grs+2,f
  3153  04A1  0DD1               	rlf	___fldiv@grs+3,f
  3154  04A2  0B89               	decfsz	9,f
  3155  04A3  2C9E               	goto	u1635
  3156  04A4                     l1731:
  3157  04A4  083D               	movf	___fldiv@a+3,w
  3158  04A5  024A               	subwf	___fldiv@rem+3,w
  3159  04A6  1D03               	skipz
  3160  04A7  2CB2               	goto	u1645
  3161  04A8  083C               	movf	___fldiv@a+2,w
  3162  04A9  0249               	subwf	___fldiv@rem+2,w
  3163  04AA  1D03               	skipz
  3164  04AB  2CB2               	goto	u1645
  3165  04AC  083B               	movf	___fldiv@a+1,w
  3166  04AD  0248               	subwf	___fldiv@rem+1,w
  3167  04AE  1D03               	skipz
  3168  04AF  2CB2               	goto	u1645
  3169  04B0  083A               	movf	___fldiv@a,w
  3170  04B1  0247               	subwf	___fldiv@rem,w
  3171  04B2                     u1645:
  3172  04B2  1C03               	skipc
  3173  04B3  2CB5               	goto	u1641
  3174  04B4  2CB6               	goto	u1640
  3175  04B5                     u1641:
  3176  04B5  2CBF               	goto	l1737
  3177  04B6                     u1640:
  3178  04B6                     l1733:
  3179  04B6  1751               	bsf	___fldiv@grs+3,6
  3180  04B7                     l1735:
  3181  04B7  083A               	movf	___fldiv@a,w
  3182  04B8  02C7               	subwf	___fldiv@rem,f
  3183  04B9  083B               	movf	___fldiv@a+1,w
  3184  04BA  3BC8               	subwfb	___fldiv@rem+1,f
  3185  04BB  083C               	movf	___fldiv@a+2,w
  3186  04BC  3BC9               	subwfb	___fldiv@rem+2,f
  3187  04BD  083D               	movf	___fldiv@a+3,w
  3188  04BE  3BCA               	subwfb	___fldiv@rem+3,f
  3189  04BF                     l1737:
  3190  04BF  3001               	movlw	1
  3191  04C0  00C2               	movwf	??___fldiv
  3192  04C1  0842               	movf	??___fldiv,w
  3193  04C2  07D3               	addwf	___fldiv@aexp,f
  3194  04C3                     l1739:
  3195  04C3  301A               	movlw	26
  3196  04C4  0253               	subwf	___fldiv@aexp,w
  3197  04C5  1C03               	skipc
  3198  04C6  2CC8               	goto	u1651
  3199  04C7  2CC9               	goto	u1650
  3200  04C8                     u1651:
  3201  04C8  2C85               	goto	l1721
  3202  04C9                     u1650:
  3203  04C9                     l1741:
  3204  04C9  084A               	movf	___fldiv@rem+3,w
  3205  04CA  0449               	iorwf	___fldiv@rem+2,w
  3206  04CB  0448               	iorwf	___fldiv@rem+1,w
  3207  04CC  0447               	iorwf	___fldiv@rem,w
  3208  04CD  1903               	skipnz
  3209  04CE  2CD0               	goto	u1661
  3210  04CF  2CD1               	goto	u1660
  3211  04D0                     u1661:
  3212  04D0  2CEA               	goto	l1755
  3213  04D1                     u1660:
  3214  04D1                     l1743:
  3215  04D1  144E               	bsf	___fldiv@grs,0
  3216  04D2  2CEA               	goto	l1755
  3217  04D3                     l1745:
  3218  04D3  3001               	movlw	1
  3219  04D4                     u1675:
  3220  04D4  35BE               	lslf	___fldiv@b,f
  3221  04D5  0DBF               	rlf	___fldiv@b+1,f
  3222  04D6  0DC0               	rlf	___fldiv@b+2,f
  3223  04D7  0DC1               	rlf	___fldiv@b+3,f
  3224  04D8  0B89               	decfsz	9,f
  3225  04D9  2CD4               	goto	u1675
  3226  04DA                     l1747:
  3227  04DA  1FD1               	btfss	___fldiv@grs+3,7
  3228  04DB  2CDD               	goto	u1681
  3229  04DC  2CDE               	goto	u1680
  3230  04DD                     u1681:
  3231  04DD  2CDF               	goto	l1751
  3232  04DE                     u1680:
  3233  04DE                     l1749:
  3234  04DE  143E               	bsf	___fldiv@b,0
  3235  04DF                     l1751:
  3236  04DF  3001               	movlw	1
  3237  04E0                     u1695:
  3238  04E0  35CE               	lslf	___fldiv@grs,f
  3239  04E1  0DCF               	rlf	___fldiv@grs+1,f
  3240  04E2  0DD0               	rlf	___fldiv@grs+2,f
  3241  04E3  0DD1               	rlf	___fldiv@grs+3,f
  3242  04E4  0B89               	decfsz	9,f
  3243  04E5  2CE0               	goto	u1695
  3244  04E6                     l1753:
  3245  04E6  30FF               	movlw	255
  3246  04E7  07CC               	addwf	___fldiv@new_exp,f
  3247  04E8  30FF               	movlw	255
  3248  04E9  3DCD               	addwfc	___fldiv@new_exp+1,f
  3249  04EA                     l1755:
  3250  04EA  1FC0               	btfss	___fldiv@b+2,7
  3251  04EB  2CED               	goto	u1701
  3252  04EC  2CEE               	goto	u1700
  3253  04ED                     u1701:
  3254  04ED  2CD3               	goto	l1745
  3255  04EE                     u1700:
  3256  04EE                     l1757:
  3257  04EE  01D3               	clrf	___fldiv@aexp
  3258  04EF                     l1759:
  3259  04EF  1FD1               	btfss	___fldiv@grs+3,7
  3260  04F0  2CF2               	goto	u1711
  3261  04F1  2CF3               	goto	u1710
  3262  04F2                     u1711:
  3263  04F2  2D0F               	goto	l1767
  3264  04F3                     u1710:
  3265  04F3                     l1761:
  3266  04F3  30FF               	movlw	255
  3267  04F4  054E               	andwf	___fldiv@grs,w
  3268  04F5  00C2               	movwf	??___fldiv
  3269  04F6  30FF               	movlw	255
  3270  04F7  054F               	andwf	___fldiv@grs+1,w
  3271  04F8  00C3               	movwf	??___fldiv+1
  3272  04F9  30FF               	movlw	255
  3273  04FA  0550               	andwf	___fldiv@grs+2,w
  3274  04FB  00C4               	movwf	??___fldiv+2
  3275  04FC  307F               	movlw	127
  3276  04FD  0551               	andwf	___fldiv@grs+3,w
  3277  04FE  00C5               	movwf	??___fldiv+3
  3278  04FF  0845               	movf	??___fldiv+3,w
  3279  0500  0444               	iorwf	??___fldiv+2,w
  3280  0501  0443               	iorwf	??___fldiv+1,w
  3281  0502  0442               	iorwf	??___fldiv,w
  3282  0503  1903               	skipnz
  3283  0504  2D06               	goto	u1721
  3284  0505  2D07               	goto	u1720
  3285  0506                     u1721:
  3286  0506  2D0A               	goto	l738
  3287  0507                     u1720:
  3288  0507                     l1763:
  3289  0507  01D3               	clrf	___fldiv@aexp
  3290  0508  0AD3               	incf	___fldiv@aexp,f
  3291  0509  2D0F               	goto	l1767
  3292  050A                     l738:
  3293  050A  1C3E               	btfss	___fldiv@b,0
  3294  050B  2D0D               	goto	u1731
  3295  050C  2D0E               	goto	u1730
  3296  050D                     u1731:
  3297  050D  2D0F               	goto	l1767
  3298  050E                     u1730:
  3299  050E  2D07               	goto	l1763
  3300  050F                     l1767:
  3301  050F  0853               	movf	___fldiv@aexp,w
  3302  0510  1903               	btfsc	3,2
  3303  0511  2D13               	goto	u1741
  3304  0512  2D14               	goto	u1740
  3305  0513                     u1741:
  3306  0513  2D3C               	goto	l1777
  3307  0514                     u1740:
  3308  0514                     l1769:
  3309  0514  3001               	movlw	1
  3310  0515  07BE               	addwf	___fldiv@b,f
  3311  0516  3000               	movlw	0
  3312  0517  3DBF               	addwfc	___fldiv@b+1,f
  3313  0518  3000               	movlw	0
  3314  0519  3DC0               	addwfc	___fldiv@b+2,f
  3315  051A  3000               	movlw	0
  3316  051B  3DC1               	addwfc	___fldiv@b+3,f
  3317  051C                     l1771:
  3318  051C  1C41               	btfss	___fldiv@b+3,0
  3319  051D  2D1F               	goto	u1751
  3320  051E  2D20               	goto	u1750
  3321  051F                     u1751:
  3322  051F  2D3C               	goto	l1777
  3323  0520                     u1750:
  3324  0520                     l1773:
  3325  0520  083E               	movf	___fldiv@b,w
  3326  0521  00C2               	movwf	??___fldiv
  3327  0522  083F               	movf	___fldiv@b+1,w
  3328  0523  00C3               	movwf	??___fldiv+1
  3329  0524  0840               	movf	___fldiv@b+2,w
  3330  0525  00C4               	movwf	??___fldiv+2
  3331  0526  0841               	movf	___fldiv@b+3,w
  3332  0527  00C5               	movwf	??___fldiv+3
  3333  0528  3001               	movlw	1
  3334  0529  00C6               	movwf	??___fldiv+4
  3335  052A                     u1765:
  3336  052A  37C5               	asrf	??___fldiv+3,f
  3337  052B  0CC4               	rrf	??___fldiv+2,f
  3338  052C  0CC3               	rrf	??___fldiv+1,f
  3339  052D  0CC2               	rrf	??___fldiv,f
  3340  052E                     u1760:
  3341  052E  0BC6               	decfsz	??___fldiv+4,f
  3342  052F  2D2A               	goto	u1765
  3343  0530  0845               	movf	??___fldiv+3,w
  3344  0531  00C1               	movwf	___fldiv@b+3
  3345  0532  0844               	movf	??___fldiv+2,w
  3346  0533  00C0               	movwf	___fldiv@b+2
  3347  0534  0843               	movf	??___fldiv+1,w
  3348  0535  00BF               	movwf	___fldiv@b+1
  3349  0536  0842               	movf	??___fldiv,w
  3350  0537  00BE               	movwf	___fldiv@b
  3351  0538                     l1775:
  3352  0538  3001               	movlw	1
  3353  0539  07CC               	addwf	___fldiv@new_exp,f
  3354  053A  3000               	movlw	0
  3355  053B  3DCD               	addwfc	___fldiv@new_exp+1,f
  3356  053C                     l1777:
  3357  053C  084D               	movf	___fldiv@new_exp+1,w
  3358  053D  3A80               	xorlw	128
  3359  053E  00C2               	movwf	??___fldiv
  3360  053F  3080               	movlw	128
  3361  0540  0242               	subwf	??___fldiv,w
  3362  0541  1D03               	skipz
  3363  0542  2D45               	goto	u1775
  3364  0543  30FF               	movlw	255
  3365  0544  024C               	subwf	___fldiv@new_exp,w
  3366  0545                     u1775:
  3367  0545  1C03               	skipc
  3368  0546  2D48               	goto	u1771
  3369  0547  2D49               	goto	u1770
  3370  0548                     u1771:
  3371  0548  2D56               	goto	l743
  3372  0549                     u1770:
  3373  0549                     l1779:
  3374  0549  30FF               	movlw	255
  3375  054A  0140               	movlb	0	; select bank0
  3376  054B  00CC               	movwf	___fldiv@new_exp
  3377  054C  3000               	movlw	0
  3378  054D  00CD               	movwf	___fldiv@new_exp+1
  3379  054E  3000               	movlw	0
  3380  054F  00C1               	movwf	___fldiv@b+3
  3381  0550  3000               	movlw	0
  3382  0551  00C0               	movwf	___fldiv@b+2
  3383  0552  3000               	movlw	0
  3384  0553  00BF               	movwf	___fldiv@b+1
  3385  0554  3000               	movlw	0
  3386  0555  00BE               	movwf	___fldiv@b
  3387  0556                     l743:
  3388  0556  0140               	movlb	0	; select bank0
  3389  0557  084D               	movf	___fldiv@new_exp+1,w
  3390  0558  3A80               	xorlw	128
  3391  0559  00C2               	movwf	??___fldiv
  3392  055A  3080               	movlw	128
  3393  055B  0242               	subwf	??___fldiv,w
  3394  055C  1D03               	skipz
  3395  055D  2D60               	goto	u1785
  3396  055E  3001               	movlw	1
  3397  055F  024C               	subwf	___fldiv@new_exp,w
  3398  0560                     u1785:
  3399  0560  1803               	skipnc
  3400  0561  2D63               	goto	u1781
  3401  0562  2D64               	goto	u1780
  3402  0563                     u1781:
  3403  0563  2D70               	goto	l744
  3404  0564                     u1780:
  3405  0564                     l1781:
  3406  0564  0140               	movlb	0	; select bank0
  3407  0565  01CC               	clrf	___fldiv@new_exp
  3408  0566  01CD               	clrf	___fldiv@new_exp+1
  3409  0567                     l1783:
  3410  0567  3000               	movlw	0
  3411  0568  00C1               	movwf	___fldiv@b+3
  3412  0569  3000               	movlw	0
  3413  056A  00C0               	movwf	___fldiv@b+2
  3414  056B  3000               	movlw	0
  3415  056C  00BF               	movwf	___fldiv@b+1
  3416  056D  3000               	movlw	0
  3417  056E  00BE               	movwf	___fldiv@b
  3418  056F                     l1785:
  3419  056F  01CB               	clrf	___fldiv@sign
  3420  0570                     l744:
  3421  0570  0140               	movlb	0	; select bank0
  3422  0571  084C               	movf	___fldiv@new_exp,w
  3423  0572  00C2               	movwf	??___fldiv
  3424  0573  0842               	movf	??___fldiv,w
  3425  0574  00D2               	movwf	___fldiv@bexp
  3426  0575                     l1787:
  3427  0575  1C52               	btfss	___fldiv@bexp,0
  3428  0576  2D78               	goto	u1791
  3429  0577  2D79               	goto	u1790
  3430  0578                     u1791:
  3431  0578  2D7B               	goto	l1791
  3432  0579                     u1790:
  3433  0579                     l1789:
  3434  0579  17C0               	bsf	___fldiv@b+2,7
  3435  057A  2D7F               	goto	l746
  3436  057B                     l1791:
  3437  057B  307F               	movlw	127
  3438  057C  00C2               	movwf	??___fldiv
  3439  057D  0842               	movf	??___fldiv,w
  3440  057E  05C0               	andwf	___fldiv@b+2,f
  3441  057F                     l746:
  3442  057F  3652               	lsrf	___fldiv@bexp,w
  3443  0580  00C2               	movwf	??___fldiv
  3444  0581  0842               	movf	??___fldiv,w
  3445  0582  00C1               	movwf	___fldiv@b+3
  3446  0583  084B               	movf	___fldiv@sign,w
  3447  0584  00C2               	movwf	??___fldiv
  3448  0585  0842               	movf	??___fldiv,w
  3449  0586  04C1               	iorwf	___fldiv@b+3,f
  3450  0587  2C44               	goto	l1701
  3451  0588                     l724:
  3452  0588  0008               	return
  3453  0589                     __end_of___fldiv:
  3454                           
  3455                           	psect	text9
  3456  00D8                     __ptext9:	
  3457 ;; *************** function _movimientos *****************
  3458 ;; Defined at:
  3459 ;;		line 393 in file "principal.c"
  3460 ;; Parameters:    Size  Location     Type
  3461 ;;		None
  3462 ;; Auto vars:     Size  Location     Type
  3463 ;;		None
  3464 ;; Return value:  Size  Location     Type
  3465 ;;                  1    wreg      void 
  3466 ;; Registers used:
  3467 ;;		wreg, status,2, status,0, pclath, cstack
  3468 ;; Tracked objects:
  3469 ;;		On entry : 0/0
  3470 ;;		On exit  : 0/0
  3471 ;;		Unchanged: 0/0
  3472 ;; Data sizes:     COMMON   BANK0   BANK1   BANK2   BANK3   BANK4   BANK5   BANK6
  3473 ;;      Params:         0       0       0       0       0       0       0       0
  3474 ;;      Locals:         0       0       0       0       0       0       0       0
  3475 ;;      Temps:          0       0       0       0       0       0       0       0
  3476 ;;      Totals:         0       0       0       0       0       0       0       0
  3477 ;;Total ram usage:        0 bytes
  3478 ;; Hardware stack levels used:    1
  3479 ;; Hardware stack levels required when called:    2
  3480 ;; This function calls:
  3481 ;;		_avanzar
  3482 ;;		_detenerse
  3483 ;;		_giro_derecha
  3484 ;;		_giro_izquierda
  3485 ;; This function is called by:
  3486 ;;		_main
  3487 ;; This function uses a non-reentrant model
  3488 ;;
  3489                           
  3490                           
  3491                           ;psect for function _movimientos
  3492  00D8                     _movimientos:
  3493  00D8                     l2053:	
  3494                           ;incstack = 0
  3495                           ; Regs used in _movimientos: [wreg+status,2+status,0+pclath+cstack]
  3496                           
  3497                           
  3498                           ;principal.c: 395:     if(sizq == 0 && scen == 0 && sder == 0)
  3499  00D8  0140               	movlb	0	; select bank0
  3500  00D9  086E               	movf	_sizq,w
  3501  00DA  1D03               	btfss	3,2
  3502  00DB  28DD               	goto	u2351
  3503  00DC  28DE               	goto	u2350
  3504  00DD                     u2351:
  3505  00DD  28EC               	goto	l2061
  3506  00DE                     u2350:
  3507  00DE                     l2055:
  3508  00DE  086F               	movf	_scen,w
  3509  00DF  1D03               	btfss	3,2
  3510  00E0  28E2               	goto	u2361
  3511  00E1  28E3               	goto	u2360
  3512  00E2                     u2361:
  3513  00E2  28EC               	goto	l2061
  3514  00E3                     u2360:
  3515  00E3                     l2057:
  3516  00E3  086D               	movf	_sder,w
  3517  00E4  1D03               	btfss	3,2
  3518  00E5  28E7               	goto	u2371
  3519  00E6  28E8               	goto	u2370
  3520  00E7                     u2371:
  3521  00E7  28EC               	goto	l2061
  3522  00E8                     u2370:
  3523  00E8                     l2059:
  3524                           
  3525                           ;principal.c: 396:     {;principal.c: 397:         detenerse();
  3526  00E8  318E  26CC  3180   	fcall	_detenerse
  3527                           
  3528                           ;principal.c: 398:     }
  3529  00EB  2965               	goto	l289
  3530  00EC                     l2061:
  3531  00EC  086E               	movf	_sizq,w
  3532  00ED  1D03               	btfss	3,2
  3533  00EE  28F0               	goto	u2381
  3534  00EF  28F1               	goto	u2380
  3535  00F0                     u2381:
  3536  00F0  28FF               	goto	l2069
  3537  00F1                     u2380:
  3538  00F1                     l2063:
  3539  00F1  086F               	movf	_scen,w
  3540  00F2  1D03               	btfss	3,2
  3541  00F3  28F5               	goto	u2391
  3542  00F4  28F6               	goto	u2390
  3543  00F5                     u2391:
  3544  00F5  28FF               	goto	l2069
  3545  00F6                     u2390:
  3546  00F6                     l2065:
  3547  00F6  036D               	decf	_sder,w
  3548  00F7  1D03               	btfss	3,2
  3549  00F8  28FA               	goto	u2401
  3550  00F9  28FB               	goto	u2400
  3551  00FA                     u2401:
  3552  00FA  28FF               	goto	l2069
  3553  00FB                     u2400:
  3554  00FB                     l2067:
  3555                           
  3556                           ;principal.c: 400:     {;principal.c: 401:         giro_izquierda();
  3557  00FB  318F  2715  3180   	fcall	_giro_izquierda
  3558                           
  3559                           ;principal.c: 402:     }
  3560  00FE  2965               	goto	l289
  3561  00FF                     l2069:
  3562  00FF  086E               	movf	_sizq,w
  3563  0100  1D03               	btfss	3,2
  3564  0101  2903               	goto	u2411
  3565  0102  2904               	goto	u2410
  3566  0103                     u2411:
  3567  0103  2912               	goto	l2077
  3568  0104                     u2410:
  3569  0104                     l2071:
  3570  0104  036F               	decf	_scen,w
  3571  0105  1D03               	btfss	3,2
  3572  0106  2908               	goto	u2421
  3573  0107  2909               	goto	u2420
  3574  0108                     u2421:
  3575  0108  2912               	goto	l2077
  3576  0109                     u2420:
  3577  0109                     l2073:
  3578  0109  086D               	movf	_sder,w
  3579  010A  1D03               	btfss	3,2
  3580  010B  290D               	goto	u2431
  3581  010C  290E               	goto	u2430
  3582  010D                     u2431:
  3583  010D  2912               	goto	l2077
  3584  010E                     u2430:
  3585  010E                     l2075:
  3586                           
  3587                           ;principal.c: 404:     {;principal.c: 405:         giro_derecha();
  3588  010E  318E  26F9  3180   	fcall	_giro_derecha
  3589                           
  3590                           ;principal.c: 406:     }
  3591  0111  2965               	goto	l289
  3592  0112                     l2077:
  3593  0112  086E               	movf	_sizq,w
  3594  0113  1D03               	btfss	3,2
  3595  0114  2916               	goto	u2441
  3596  0115  2917               	goto	u2440
  3597  0116                     u2441:
  3598  0116  2922               	goto	l2085
  3599  0117                     u2440:
  3600  0117                     l2079:
  3601  0117  036F               	decf	_scen,w
  3602  0118  1D03               	btfss	3,2
  3603  0119  291B               	goto	u2451
  3604  011A  291C               	goto	u2450
  3605  011B                     u2451:
  3606  011B  2922               	goto	l2085
  3607  011C                     u2450:
  3608  011C                     l2081:
  3609  011C  036D               	decf	_sder,w
  3610  011D  1D03               	btfss	3,2
  3611  011E  2920               	goto	u2461
  3612  011F  2921               	goto	u2460
  3613  0120                     u2461:
  3614  0120  2922               	goto	l2085
  3615  0121                     u2460:
  3616  0121  28FB               	goto	l2067
  3617  0122                     l2085:
  3618  0122  036E               	decf	_sizq,w
  3619  0123  1D03               	btfss	3,2
  3620  0124  2926               	goto	u2471
  3621  0125  2927               	goto	u2470
  3622  0126                     u2471:
  3623  0126  2935               	goto	l2093
  3624  0127                     u2470:
  3625  0127                     l2087:
  3626  0127  086F               	movf	_scen,w
  3627  0128  1D03               	btfss	3,2
  3628  0129  292B               	goto	u2481
  3629  012A  292C               	goto	u2480
  3630  012B                     u2481:
  3631  012B  2935               	goto	l2093
  3632  012C                     u2480:
  3633  012C                     l2089:
  3634  012C  086D               	movf	_sder,w
  3635  012D  1D03               	btfss	3,2
  3636  012E  2930               	goto	u2491
  3637  012F  2931               	goto	u2490
  3638  0130                     u2491:
  3639  0130  2935               	goto	l2093
  3640  0131                     u2490:
  3641  0131                     l2091:
  3642                           
  3643                           ;principal.c: 412:     {;principal.c: 413:         avanzar();
  3644  0131  3180  2055  3180   	fcall	_avanzar
  3645                           
  3646                           ;principal.c: 414:     }
  3647  0134  2965               	goto	l289
  3648  0135                     l2093:
  3649  0135  036E               	decf	_sizq,w
  3650  0136  1D03               	btfss	3,2
  3651  0137  2939               	goto	u2501
  3652  0138  293A               	goto	u2500
  3653  0139                     u2501:
  3654  0139  2945               	goto	l2101
  3655  013A                     u2500:
  3656  013A                     l2095:
  3657  013A  086F               	movf	_scen,w
  3658  013B  1D03               	btfss	3,2
  3659  013C  293E               	goto	u2511
  3660  013D  293F               	goto	u2510
  3661  013E                     u2511:
  3662  013E  2945               	goto	l2101
  3663  013F                     u2510:
  3664  013F                     l2097:
  3665  013F  036D               	decf	_sder,w
  3666  0140  1D03               	btfss	3,2
  3667  0141  2943               	goto	u2521
  3668  0142  2944               	goto	u2520
  3669  0143                     u2521:
  3670  0143  2945               	goto	l2101
  3671  0144                     u2520:
  3672  0144  2931               	goto	l2091
  3673  0145                     l2101:
  3674  0145  036E               	decf	_sizq,w
  3675  0146  1D03               	btfss	3,2
  3676  0147  2949               	goto	u2531
  3677  0148  294A               	goto	u2530
  3678  0149                     u2531:
  3679  0149  2955               	goto	l2109
  3680  014A                     u2530:
  3681  014A                     l2103:
  3682  014A  036F               	decf	_scen,w
  3683  014B  1D03               	btfss	3,2
  3684  014C  294E               	goto	u2541
  3685  014D  294F               	goto	u2540
  3686  014E                     u2541:
  3687  014E  2955               	goto	l2109
  3688  014F                     u2540:
  3689  014F                     l2105:
  3690  014F  086D               	movf	_sder,w
  3691  0150  1D03               	btfss	3,2
  3692  0151  2953               	goto	u2551
  3693  0152  2954               	goto	u2550
  3694  0153                     u2551:
  3695  0153  2955               	goto	l2109
  3696  0154                     u2550:
  3697  0154  290E               	goto	l2075
  3698  0155                     l2109:
  3699  0155  036E               	decf	_sizq,w
  3700  0156  1D03               	btfss	3,2
  3701  0157  2959               	goto	u2561
  3702  0158  295A               	goto	u2560
  3703  0159                     u2561:
  3704  0159  2965               	goto	l283
  3705  015A                     u2560:
  3706  015A                     l2111:
  3707  015A  036F               	decf	_scen,w
  3708  015B  1D03               	btfss	3,2
  3709  015C  295E               	goto	u2571
  3710  015D  295F               	goto	u2570
  3711  015E                     u2571:
  3712  015E  2965               	goto	l283
  3713  015F                     u2570:
  3714  015F                     l2113:
  3715  015F  036D               	decf	_sder,w
  3716  0160  1D03               	btfss	3,2
  3717  0161  2963               	goto	u2581
  3718  0162  2964               	goto	u2580
  3719  0163                     u2581:
  3720  0163  2965               	goto	l283
  3721  0164                     u2580:
  3722  0164  290E               	goto	l2075
  3723  0165                     l283:
  3724  0165                     l289:
  3725  0165  0008               	return
  3726  0166                     __end_of_movimientos:
  3727                           
  3728                           	psect	text10
  3729  0F15                     __ptext10:	
  3730 ;; *************** function _giro_izquierda *****************
  3731 ;; Defined at:
  3732 ;;		line 364 in file "principal.c"
  3733 ;; Parameters:    Size  Location     Type
  3734 ;;		None
  3735 ;; Auto vars:     Size  Location     Type
  3736 ;;  dutyCycleDer    2    0        unsigned short 
  3737 ;;  dutyCycleIzq    2    0        unsigned short 
  3738 ;; Return value:  Size  Location     Type
  3739 ;;                  1    wreg      void 
  3740 ;; Registers used:
  3741 ;;		wreg, status,2, status,0, pclath, cstack
  3742 ;; Tracked objects:
  3743 ;;		On entry : 0/0
  3744 ;;		On exit  : 0/0
  3745 ;;		Unchanged: 0/0
  3746 ;; Data sizes:     COMMON   BANK0   BANK1   BANK2   BANK3   BANK4   BANK5   BANK6
  3747 ;;      Params:         0       0       0       0       0       0       0       0
  3748 ;;      Locals:         4       0       0       0       0       0       0       0
  3749 ;;      Temps:          0       0       0       0       0       0       0       0
  3750 ;;      Totals:         4       0       0       0       0       0       0       0
  3751 ;;Total ram usage:        4 bytes
  3752 ;; Hardware stack levels used:    1
  3753 ;; Hardware stack levels required when called:    1
  3754 ;; This function calls:
  3755 ;;		_PWM3_LoadDutyValue
  3756 ;;		_PWM4_LoadDutyValue
  3757 ;; This function is called by:
  3758 ;;		_movimientos
  3759 ;; This function uses a non-reentrant model
  3760 ;;
  3761                           
  3762                           
  3763                           ;psect for function _giro_izquierda
  3764  0F15                     _giro_izquierda:
  3765  0F15                     l1593:	
  3766                           ;incstack = 0
  3767                           ; Regs used in _giro_izquierda: [wreg+status,2+status,0+pclath+cstack]
  3768                           
  3769                           
  3770                           ;principal.c: 366:     while(scen != 1)
  3771  0F15  2F2A               	goto	l1617
  3772  0F16                     l1595:
  3773  0F16                     l1597:
  3774  0F16                     l1599:
  3775                           
  3776                           ;principal.c: 370:         LATAbits.LATA5 = 0;
  3777  0F16  1298               	bcf	24,5	;volatile
  3778  0F17                     l1601:
  3779                           
  3780                           ;principal.c: 371:         LATCbits.LATC4 = 1;
  3781  0F17  161A               	bsf	26,4	;volatile
  3782  0F18                     l1603:
  3783                           
  3784                           ;principal.c: 372:         LATBbits.LATB5 = 1;
  3785  0F18  1699               	bsf	25,5	;volatile
  3786  0F19                     l1605:
  3787                           
  3788                           ;principal.c: 373:         LATCbits.LATC5 = 0;
  3789  0F19  129A               	bcf	26,5	;volatile
  3790  0F1A                     l1607:
  3791                           
  3792                           ;principal.c: 374:         LATCbits.LATC1 = 0;
  3793  0F1A  109A               	bcf	26,1	;volatile
  3794  0F1B                     l1609:
  3795                           
  3796                           ;principal.c: 375:         LATAbits.LATA4 = 1;
  3797  0F1B  1618               	bsf	24,4	;volatile
  3798  0F1C                     l1611:
  3799                           
  3800                           ;principal.c: 376:         LATAbits.LATA2 = 0;
  3801  0F1C  1118               	bcf	24,2	;volatile
  3802  0F1D                     l1613:
  3803                           
  3804                           ;principal.c: 377:         PWM3_LoadDutyValue(dutyCycleIzquierda);
  3805  0F1D  3000               	movlw	0
  3806  0F1E  00F0               	movwf	PWM3_LoadDutyValue@dutyValue
  3807  0F1F  00F1               	movwf	PWM3_LoadDutyValue@dutyValue+1
  3808  0F20  318E  26E3  318F   	fcall	_PWM3_LoadDutyValue
  3809  0F23                     l1615:
  3810                           
  3811                           ;principal.c: 378:         PWM4_LoadDutyValue(dutyCycleDerecha);
  3812  0F23  300F               	movlw	15
  3813  0F24  00F0               	movwf	PWM4_LoadDutyValue@dutyValue
  3814  0F25  3000               	movlw	0
  3815  0F26  00F1               	movwf	PWM4_LoadDutyValue@dutyValue+1
  3816  0F27  3180  2006  318F   	fcall	_PWM4_LoadDutyValue
  3817  0F2A                     l1617:
  3818                           
  3819                           ;principal.c: 366:     while(scen != 1)
  3820  0F2A  0140               	movlb	0	; select bank0
  3821  0F2B  036F               	decf	_scen,w
  3822  0F2C  1D03               	btfss	3,2
  3823  0F2D  2F2F               	goto	u1401
  3824  0F2E  2F30               	goto	u1400
  3825  0F2F                     u1401:
  3826  0F2F  2F16               	goto	l1595
  3827  0F30                     u1400:
  3828  0F30                     l268:
  3829  0F30  0008               	return
  3830  0F31                     __end_of_giro_izquierda:
  3831                           
  3832                           	psect	text11
  3833  0EF9                     __ptext11:	
  3834 ;; *************** function _giro_derecha *****************
  3835 ;; Defined at:
  3836 ;;		line 346 in file "principal.c"
  3837 ;; Parameters:    Size  Location     Type
  3838 ;;		None
  3839 ;; Auto vars:     Size  Location     Type
  3840 ;;  dutyCycleDer    2    0        unsigned short 
  3841 ;;  dutyCycleIzq    2    0        unsigned short 
  3842 ;; Return value:  Size  Location     Type
  3843 ;;                  1    wreg      void 
  3844 ;; Registers used:
  3845 ;;		wreg, status,2, status,0, pclath, cstack
  3846 ;; Tracked objects:
  3847 ;;		On entry : 0/0
  3848 ;;		On exit  : 0/0
  3849 ;;		Unchanged: 0/0
  3850 ;; Data sizes:     COMMON   BANK0   BANK1   BANK2   BANK3   BANK4   BANK5   BANK6
  3851 ;;      Params:         0       0       0       0       0       0       0       0
  3852 ;;      Locals:         4       0       0       0       0       0       0       0
  3853 ;;      Temps:          0       0       0       0       0       0       0       0
  3854 ;;      Totals:         4       0       0       0       0       0       0       0
  3855 ;;Total ram usage:        4 bytes
  3856 ;; Hardware stack levels used:    1
  3857 ;; Hardware stack levels required when called:    1
  3858 ;; This function calls:
  3859 ;;		_PWM3_LoadDutyValue
  3860 ;;		_PWM4_LoadDutyValue
  3861 ;; This function is called by:
  3862 ;;		_movimientos
  3863 ;; This function uses a non-reentrant model
  3864 ;;
  3865                           
  3866                           
  3867                           ;psect for function _giro_derecha
  3868  0EF9                     _giro_derecha:
  3869  0EF9                     l1567:	
  3870                           ;incstack = 0
  3871                           ; Regs used in _giro_derecha: [wreg+status,2+status,0+pclath+cstack]
  3872                           
  3873                           
  3874                           ;principal.c: 348:     while(scen != 1)
  3875  0EF9  2F0E               	goto	l1591
  3876  0EFA                     l1569:
  3877  0EFA                     l1571:
  3878  0EFA                     l1573:
  3879                           
  3880                           ;principal.c: 352:         LATAbits.LATA5 = 1;
  3881  0EFA  1698               	bsf	24,5	;volatile
  3882  0EFB                     l1575:
  3883                           
  3884                           ;principal.c: 353:         LATCbits.LATC4 = 0;
  3885  0EFB  121A               	bcf	26,4	;volatile
  3886  0EFC                     l1577:
  3887                           
  3888                           ;principal.c: 354:         LATBbits.LATB5 = 0;
  3889  0EFC  1299               	bcf	25,5	;volatile
  3890  0EFD                     l1579:
  3891                           
  3892                           ;principal.c: 355:         LATCbits.LATC5 = 1;
  3893  0EFD  169A               	bsf	26,5	;volatile
  3894  0EFE                     l1581:
  3895                           
  3896                           ;principal.c: 356:         LATCbits.LATC1 = 1;
  3897  0EFE  149A               	bsf	26,1	;volatile
  3898  0EFF                     l1583:
  3899                           
  3900                           ;principal.c: 357:         LATAbits.LATA4 = 0;
  3901  0EFF  1218               	bcf	24,4	;volatile
  3902  0F00                     l1585:
  3903                           
  3904                           ;principal.c: 358:         LATAbits.LATA2 = 0;
  3905  0F00  1118               	bcf	24,2	;volatile
  3906  0F01                     l1587:
  3907                           
  3908                           ;principal.c: 359:         PWM3_LoadDutyValue(dutyCycleIzquierda);
  3909  0F01  3000               	movlw	0
  3910  0F02  00F0               	movwf	PWM3_LoadDutyValue@dutyValue
  3911  0F03  00F1               	movwf	PWM3_LoadDutyValue@dutyValue+1
  3912  0F04  318E  26E3  318E   	fcall	_PWM3_LoadDutyValue
  3913  0F07                     l1589:
  3914                           
  3915                           ;principal.c: 360:         PWM4_LoadDutyValue(dutyCycleDerecha);
  3916  0F07  300F               	movlw	15
  3917  0F08  00F0               	movwf	PWM4_LoadDutyValue@dutyValue
  3918  0F09  3000               	movlw	0
  3919  0F0A  00F1               	movwf	PWM4_LoadDutyValue@dutyValue+1
  3920  0F0B  3180  2006  318E   	fcall	_PWM4_LoadDutyValue
  3921  0F0E                     l1591:
  3922                           
  3923                           ;principal.c: 348:     while(scen != 1)
  3924  0F0E  0140               	movlb	0	; select bank0
  3925  0F0F  036F               	decf	_scen,w
  3926  0F10  1D03               	btfss	3,2
  3927  0F11  2F13               	goto	u1391
  3928  0F12  2F14               	goto	u1390
  3929  0F13                     u1391:
  3930  0F13  2EFA               	goto	l1569
  3931  0F14                     u1390:
  3932  0F14                     l262:
  3933  0F14  0008               	return
  3934  0F15                     __end_of_giro_derecha:
  3935                           
  3936                           	psect	text12
  3937  0ECC                     __ptext12:	
  3938 ;; *************** function _detenerse *****************
  3939 ;; Defined at:
  3940 ;;		line 382 in file "principal.c"
  3941 ;; Parameters:    Size  Location     Type
  3942 ;;		None
  3943 ;; Auto vars:     Size  Location     Type
  3944 ;;		None
  3945 ;; Return value:  Size  Location     Type
  3946 ;;                  1    wreg      void 
  3947 ;; Registers used:
  3948 ;;		None
  3949 ;; Tracked objects:
  3950 ;;		On entry : 0/0
  3951 ;;		On exit  : 0/0
  3952 ;;		Unchanged: 0/0
  3953 ;; Data sizes:     COMMON   BANK0   BANK1   BANK2   BANK3   BANK4   BANK5   BANK6
  3954 ;;      Params:         0       0       0       0       0       0       0       0
  3955 ;;      Locals:         0       0       0       0       0       0       0       0
  3956 ;;      Temps:          0       0       0       0       0       0       0       0
  3957 ;;      Totals:         0       0       0       0       0       0       0       0
  3958 ;;Total ram usage:        0 bytes
  3959 ;; Hardware stack levels used:    1
  3960 ;; This function calls:
  3961 ;;		Nothing
  3962 ;; This function is called by:
  3963 ;;		_movimientos
  3964 ;; This function uses a non-reentrant model
  3965 ;;
  3966                           
  3967                           
  3968                           ;psect for function _detenerse
  3969  0ECC                     _detenerse:
  3970  0ECC                     l1619:	
  3971                           ;incstack = 0
  3972                           ; Regs used in _detenerse: []
  3973                           
  3974                           
  3975                           ;principal.c: 384:     LATAbits.LATA5 = 0;
  3976  0ECC  0140               	movlb	0	; select bank0
  3977  0ECD  1298               	bcf	24,5	;volatile
  3978                           
  3979                           ;principal.c: 385:     LATCbits.LATC4 = 0;
  3980  0ECE  121A               	bcf	26,4	;volatile
  3981                           
  3982                           ;principal.c: 386:     LATBbits.LATB5 = 0;
  3983  0ECF  1299               	bcf	25,5	;volatile
  3984                           
  3985                           ;principal.c: 387:     LATCbits.LATC5 = 0;
  3986  0ED0  129A               	bcf	26,5	;volatile
  3987                           
  3988                           ;principal.c: 388:     LATCbits.LATC1 = 0;
  3989  0ED1  109A               	bcf	26,1	;volatile
  3990                           
  3991                           ;principal.c: 389:     LATAbits.LATA4 = 0;
  3992  0ED2  1218               	bcf	24,4	;volatile
  3993                           
  3994                           ;principal.c: 390:     LATAbits.LATA2 = 1;
  3995  0ED3  1518               	bsf	24,2	;volatile
  3996  0ED4                     l271:
  3997  0ED4  0008               	return
  3998  0ED5                     __end_of_detenerse:
  3999                           
  4000                           	psect	text13
  4001  0055                     __ptext13:	
  4002 ;; *************** function _avanzar *****************
  4003 ;; Defined at:
  4004 ;;		line 309 in file "principal.c"
  4005 ;; Parameters:    Size  Location     Type
  4006 ;;		None
  4007 ;; Auto vars:     Size  Location     Type
  4008 ;;  dutyCycleDer    2    7[COMMON] unsigned short 
  4009 ;;  dutyCycleIzq    2    5[COMMON] unsigned short 
  4010 ;; Return value:  Size  Location     Type
  4011 ;;                  1    wreg      void 
  4012 ;; Registers used:
  4013 ;;		wreg, status,2, status,0, pclath, cstack
  4014 ;; Tracked objects:
  4015 ;;		On entry : 0/0
  4016 ;;		On exit  : 0/0
  4017 ;;		Unchanged: 0/0
  4018 ;; Data sizes:     COMMON   BANK0   BANK1   BANK2   BANK3   BANK4   BANK5   BANK6
  4019 ;;      Params:         0       0       0       0       0       0       0       0
  4020 ;;      Locals:         4       0       0       0       0       0       0       0
  4021 ;;      Temps:          1       0       0       0       0       0       0       0
  4022 ;;      Totals:         5       0       0       0       0       0       0       0
  4023 ;;Total ram usage:        5 bytes
  4024 ;; Hardware stack levels used:    1
  4025 ;; Hardware stack levels required when called:    1
  4026 ;; This function calls:
  4027 ;;		_PWM3_LoadDutyValue
  4028 ;;		_PWM4_LoadDutyValue
  4029 ;; This function is called by:
  4030 ;;		_movimientos
  4031 ;; This function uses a non-reentrant model
  4032 ;;
  4033                           
  4034                           
  4035                           ;psect for function _avanzar
  4036  0055                     _avanzar:
  4037  0055                     l1541:	
  4038                           ;incstack = 0
  4039                           ; Regs used in _avanzar: [wreg+status,2+status,0+pclath+cstack]
  4040                           
  4041                           
  4042                           ;principal.c: 311:     uint16_t dutyCycleIzquierda = 0;
  4043  0055  01F5               	clrf	avanzar@dutyCycleIzquierda
  4044  0056  01F6               	clrf	avanzar@dutyCycleIzquierda+1
  4045  0057                     l1543:
  4046                           
  4047                           ;principal.c: 312:     uint16_t dutyCycleDerecha = 25;
  4048  0057  3019               	movlw	25
  4049  0058  00F7               	movwf	avanzar@dutyCycleDerecha
  4050  0059  3000               	movlw	0
  4051  005A  00F8               	movwf	avanzar@dutyCycleDerecha+1
  4052                           
  4053                           ;principal.c: 313:     while(scen != 1)
  4054  005B  28D1               	goto	l1565
  4055  005C                     l245:
  4056                           
  4057                           ;principal.c: 314:         {;principal.c: 315:         LATAbits.LATA5 = 1;
  4058  005C  1698               	bsf	24,5	;volatile
  4059                           
  4060                           ;principal.c: 316:         LATCbits.LATC4 = 1;
  4061  005D  161A               	bsf	26,4	;volatile
  4062                           
  4063                           ;principal.c: 317:         LATBbits.LATB5 = 0;
  4064  005E  1299               	bcf	25,5	;volatile
  4065                           
  4066                           ;principal.c: 318:         LATCbits.LATC5 = 0;
  4067  005F  129A               	bcf	26,5	;volatile
  4068                           
  4069                           ;principal.c: 319:         LATCbits.LATC1 = 0;
  4070  0060  109A               	bcf	26,1	;volatile
  4071                           
  4072                           ;principal.c: 320:         LATAbits.LATA4 = 0;
  4073  0061  1218               	bcf	24,4	;volatile
  4074                           
  4075                           ;principal.c: 321:         LATAbits.LATA2 = 0;
  4076  0062  1118               	bcf	24,2	;volatile
  4077                           
  4078                           ;principal.c: 322:         while(distanciaderecha > distanciaizquierda)
  4079  0063  287E               	goto	l1551
  4080  0064                     l1545:
  4081                           
  4082                           ;principal.c: 323:         {;principal.c: 324:         dutyCycleIzquierda = dutyCycleIzq
      +                          uierda + 1;
  4083  0064  0875               	movf	avanzar@dutyCycleIzquierda,w
  4084  0065  3E01               	addlw	1
  4085  0066  00F5               	movwf	avanzar@dutyCycleIzquierda
  4086  0067  3000               	movlw	0
  4087  0068  3D76               	addwfc	avanzar@dutyCycleIzquierda+1,w
  4088  0069  00F6               	movwf	avanzar@dutyCycleIzquierda+1
  4089                           
  4090                           ;principal.c: 325:         dutyCycleDerecha = dutyCycleDerecha - 1;
  4091  006A  0877               	movf	avanzar@dutyCycleDerecha,w
  4092  006B  3EFF               	addlw	255
  4093  006C  00F7               	movwf	avanzar@dutyCycleDerecha
  4094  006D  30FF               	movlw	255
  4095  006E  3D78               	addwfc	avanzar@dutyCycleDerecha+1,w
  4096  006F  00F8               	movwf	avanzar@dutyCycleDerecha+1
  4097  0070                     l1547:
  4098                           
  4099                           ;principal.c: 326:         PWM3_LoadDutyValue(dutyCycleIzquierda);
  4100  0070  0876               	movf	avanzar@dutyCycleIzquierda+1,w
  4101  0071  00F1               	movwf	PWM3_LoadDutyValue@dutyValue+1
  4102  0072  0875               	movf	avanzar@dutyCycleIzquierda,w
  4103  0073  00F0               	movwf	PWM3_LoadDutyValue@dutyValue
  4104  0074  318E  26E3  3180   	fcall	_PWM3_LoadDutyValue
  4105  0077                     l1549:
  4106                           
  4107                           ;principal.c: 327:         PWM4_LoadDutyValue(dutyCycleDerecha);
  4108  0077  0878               	movf	avanzar@dutyCycleDerecha+1,w
  4109  0078  00F1               	movwf	PWM4_LoadDutyValue@dutyValue+1
  4110  0079  0877               	movf	avanzar@dutyCycleDerecha,w
  4111  007A  00F0               	movwf	PWM4_LoadDutyValue@dutyValue
  4112  007B  3180  2006  3180   	fcall	_PWM4_LoadDutyValue
  4113  007E                     l1551:
  4114                           
  4115                           ;principal.c: 322:         while(distanciaderecha > distanciaizquierda)
  4116  007E  0140               	movlb	0	; select bank0
  4117  007F  086A               	movf	_distanciaizquierda+1,w
  4118  0080  3A80               	xorlw	128
  4119  0081  00F4               	movwf	??_avanzar
  4120  0082  0868               	movf	_distanciaderecha+1,w
  4121  0083  3A80               	xorlw	128
  4122  0084  0274               	subwf	??_avanzar,w
  4123  0085  1D03               	skipz
  4124  0086  2889               	goto	u1355
  4125  0087  0867               	movf	_distanciaderecha,w
  4126  0088  0269               	subwf	_distanciaizquierda,w
  4127  0089                     u1355:
  4128  0089  1C03               	skipc
  4129  008A  288C               	goto	u1351
  4130  008B  288D               	goto	u1350
  4131  008C                     u1351:
  4132  008C  2864               	goto	l1545
  4133  008D                     u1350:
  4134  008D  28A8               	goto	l1559
  4135  008E                     l1553:
  4136                           
  4137                           ;principal.c: 330:         {;principal.c: 331:         dutyCycleIzquierda = dutyCycleIzq
      +                          uierda - 1;
  4138  008E  0875               	movf	avanzar@dutyCycleIzquierda,w
  4139  008F  3EFF               	addlw	255
  4140  0090  00F5               	movwf	avanzar@dutyCycleIzquierda
  4141  0091  30FF               	movlw	255
  4142  0092  3D76               	addwfc	avanzar@dutyCycleIzquierda+1,w
  4143  0093  00F6               	movwf	avanzar@dutyCycleIzquierda+1
  4144                           
  4145                           ;principal.c: 332:         dutyCycleDerecha = dutyCycleDerecha + 1;
  4146  0094  0877               	movf	avanzar@dutyCycleDerecha,w
  4147  0095  3E01               	addlw	1
  4148  0096  00F7               	movwf	avanzar@dutyCycleDerecha
  4149  0097  3000               	movlw	0
  4150  0098  3D78               	addwfc	avanzar@dutyCycleDerecha+1,w
  4151  0099  00F8               	movwf	avanzar@dutyCycleDerecha+1
  4152  009A                     l1555:
  4153                           
  4154                           ;principal.c: 333:         PWM3_LoadDutyValue(dutyCycleIzquierda);
  4155  009A  0876               	movf	avanzar@dutyCycleIzquierda+1,w
  4156  009B  00F1               	movwf	PWM3_LoadDutyValue@dutyValue+1
  4157  009C  0875               	movf	avanzar@dutyCycleIzquierda,w
  4158  009D  00F0               	movwf	PWM3_LoadDutyValue@dutyValue
  4159  009E  318E  26E3  3180   	fcall	_PWM3_LoadDutyValue
  4160  00A1                     l1557:
  4161                           
  4162                           ;principal.c: 334:         PWM4_LoadDutyValue(dutyCycleDerecha);
  4163  00A1  0878               	movf	avanzar@dutyCycleDerecha+1,w
  4164  00A2  00F1               	movwf	PWM4_LoadDutyValue@dutyValue+1
  4165  00A3  0877               	movf	avanzar@dutyCycleDerecha,w
  4166  00A4  00F0               	movwf	PWM4_LoadDutyValue@dutyValue
  4167  00A5  3180  2006  3180   	fcall	_PWM4_LoadDutyValue
  4168  00A8                     l1559:
  4169                           
  4170                           ;principal.c: 329:         while(distanciaderecha < distanciaizquierda)
  4171  00A8  0140               	movlb	0	; select bank0
  4172  00A9  0868               	movf	_distanciaderecha+1,w
  4173  00AA  3A80               	xorlw	128
  4174  00AB  00F4               	movwf	??_avanzar
  4175  00AC  086A               	movf	_distanciaizquierda+1,w
  4176  00AD  3A80               	xorlw	128
  4177  00AE  0274               	subwf	??_avanzar,w
  4178  00AF  1D03               	skipz
  4179  00B0  28B3               	goto	u1365
  4180  00B1  0869               	movf	_distanciaizquierda,w
  4181  00B2  0267               	subwf	_distanciaderecha,w
  4182  00B3                     u1365:
  4183  00B3  1C03               	skipc
  4184  00B4  28B6               	goto	u1361
  4185  00B5  28B7               	goto	u1360
  4186  00B6                     u1361:
  4187  00B6  288E               	goto	l1553
  4188  00B7                     u1360:
  4189  00B7  28C6               	goto	l1563
  4190  00B8                     l1561:
  4191                           
  4192                           ;principal.c: 340:         PWM3_LoadDutyValue(dutyCycleIzquierda);
  4193  00B8  0876               	movf	avanzar@dutyCycleIzquierda+1,w
  4194  00B9  00F1               	movwf	PWM3_LoadDutyValue@dutyValue+1
  4195  00BA  0875               	movf	avanzar@dutyCycleIzquierda,w
  4196  00BB  00F0               	movwf	PWM3_LoadDutyValue@dutyValue
  4197  00BC  318E  26E3  3180   	fcall	_PWM3_LoadDutyValue
  4198                           
  4199                           ;principal.c: 341:         PWM4_LoadDutyValue(dutyCycleDerecha);
  4200  00BF  0878               	movf	avanzar@dutyCycleDerecha+1,w
  4201  00C0  00F1               	movwf	PWM4_LoadDutyValue@dutyValue+1
  4202  00C1  0877               	movf	avanzar@dutyCycleDerecha,w
  4203  00C2  00F0               	movwf	PWM4_LoadDutyValue@dutyValue
  4204  00C3  3180  2006  3180   	fcall	_PWM4_LoadDutyValue
  4205  00C6                     l1563:
  4206                           
  4207                           ;principal.c: 336:         while(distanciaderecha == distanciaizquierda)
  4208  00C6  0140               	movlb	0	; select bank0
  4209  00C7  086A               	movf	_distanciaizquierda+1,w
  4210  00C8  0668               	xorwf	_distanciaderecha+1,w
  4211  00C9  1D03               	skipz
  4212  00CA  28CD               	goto	u1375
  4213  00CB  0869               	movf	_distanciaizquierda,w
  4214  00CC  0667               	xorwf	_distanciaderecha,w
  4215  00CD                     u1375:
  4216  00CD  1903               	skipnz
  4217  00CE  28D0               	goto	u1371
  4218  00CF  28D1               	goto	u1370
  4219  00D0                     u1371:
  4220  00D0  28B8               	goto	l1561
  4221  00D1                     u1370:
  4222  00D1                     l1565:
  4223                           
  4224                           ;principal.c: 313:     while(scen != 1)
  4225  00D1  0140               	movlb	0	; select bank0
  4226  00D2  036F               	decf	_scen,w
  4227  00D3  1D03               	btfss	3,2
  4228  00D4  28D6               	goto	u1381
  4229  00D5  28D7               	goto	u1380
  4230  00D6                     u1381:
  4231  00D6  285C               	goto	l245
  4232  00D7                     u1380:
  4233  00D7                     l256:
  4234  00D7  0008               	return
  4235  00D8                     __end_of_avanzar:
  4236                           
  4237                           	psect	text14
  4238  0006                     __ptext14:	
  4239 ;; *************** function _PWM4_LoadDutyValue *****************
  4240 ;; Defined at:
  4241 ;;		line 303 in file "principal.c"
  4242 ;; Parameters:    Size  Location     Type
  4243 ;;  dutyValue       2    0[COMMON] unsigned short 
  4244 ;; Auto vars:     Size  Location     Type
  4245 ;;		None
  4246 ;; Return value:  Size  Location     Type
  4247 ;;                  1    wreg      void 
  4248 ;; Registers used:
  4249 ;;		wreg, status,2, status,0
  4250 ;; Tracked objects:
  4251 ;;		On entry : 0/0
  4252 ;;		On exit  : 0/0
  4253 ;;		Unchanged: 0/0
  4254 ;; Data sizes:     COMMON   BANK0   BANK1   BANK2   BANK3   BANK4   BANK5   BANK6
  4255 ;;      Params:         2       0       0       0       0       0       0       0
  4256 ;;      Locals:         0       0       0       0       0       0       0       0
  4257 ;;      Temps:          2       0       0       0       0       0       0       0
  4258 ;;      Totals:         4       0       0       0       0       0       0       0
  4259 ;;Total ram usage:        4 bytes
  4260 ;; Hardware stack levels used:    1
  4261 ;; This function calls:
  4262 ;;		Nothing
  4263 ;; This function is called by:
  4264 ;;		_avanzar
  4265 ;;		_giro_derecha
  4266 ;;		_giro_izquierda
  4267 ;; This function uses a non-reentrant model
  4268 ;;
  4269                           
  4270                           
  4271                           ;psect for function _PWM4_LoadDutyValue
  4272  0006                     _PWM4_LoadDutyValue:
  4273  0006                     l1525:	
  4274                           ;incstack = 0
  4275                           ; Regs used in _PWM4_LoadDutyValue: [wreg+status,2+status,0]
  4276                           
  4277                           
  4278                           ;principal.c: 303: void PWM4_LoadDutyValue(uint16_t dutyValue);principal.c: 304: {;princ
      +                          ipal.c: 305:     PWM4DCH = (dutyValue & 0x03FC) >> 2;
  4279  0006  0871               	movf	PWM4_LoadDutyValue@dutyValue+1,w
  4280  0007  00F3               	movwf	??_PWM4_LoadDutyValue+1
  4281  0008  0870               	movf	PWM4_LoadDutyValue@dutyValue,w
  4282  0009  00F2               	movwf	??_PWM4_LoadDutyValue
  4283  000A  36F3               	lsrf	??_PWM4_LoadDutyValue+1,f
  4284  000B  0CF2               	rrf	??_PWM4_LoadDutyValue,f
  4285  000C  36F3               	lsrf	??_PWM4_LoadDutyValue+1,f
  4286  000D  0CF2               	rrf	??_PWM4_LoadDutyValue,f
  4287  000E  0872               	movf	??_PWM4_LoadDutyValue,w
  4288  000F  0146               	movlb	6	; select bank6
  4289  0010  0099               	movwf	25	;volatile
  4290                           
  4291                           ;principal.c: 306:     PWM4DCL = (dutyValue & 0x0003) << 6;
  4292  0011  0870               	movf	PWM4_LoadDutyValue@dutyValue,w
  4293  0012  3903               	andlw	3
  4294  0013  00F2               	movwf	??_PWM4_LoadDutyValue
  4295  0014  3005               	movlw	5
  4296  0015                     u1315:
  4297  0015  35F2               	lslf	??_PWM4_LoadDutyValue,f
  4298  0016  3EFF               	addlw	-1
  4299  0017  1D03               	skipz
  4300  0018  2815               	goto	u1315
  4301  0019  3572               	lslf	??_PWM4_LoadDutyValue,w
  4302  001A  0098               	movwf	24	;volatile
  4303  001B                     l241:
  4304  001B  0008               	return
  4305  001C                     __end_of_PWM4_LoadDutyValue:
  4306                           
  4307                           	psect	text15
  4308  0EE3                     __ptext15:	
  4309 ;; *************** function _PWM3_LoadDutyValue *****************
  4310 ;; Defined at:
  4311 ;;		line 297 in file "principal.c"
  4312 ;; Parameters:    Size  Location     Type
  4313 ;;  dutyValue       2    0[COMMON] unsigned short 
  4314 ;; Auto vars:     Size  Location     Type
  4315 ;;		None
  4316 ;; Return value:  Size  Location     Type
  4317 ;;                  1    wreg      void 
  4318 ;; Registers used:
  4319 ;;		wreg, status,2, status,0
  4320 ;; Tracked objects:
  4321 ;;		On entry : 0/0
  4322 ;;		On exit  : 0/0
  4323 ;;		Unchanged: 0/0
  4324 ;; Data sizes:     COMMON   BANK0   BANK1   BANK2   BANK3   BANK4   BANK5   BANK6
  4325 ;;      Params:         2       0       0       0       0       0       0       0
  4326 ;;      Locals:         0       0       0       0       0       0       0       0
  4327 ;;      Temps:          2       0       0       0       0       0       0       0
  4328 ;;      Totals:         4       0       0       0       0       0       0       0
  4329 ;;Total ram usage:        4 bytes
  4330 ;; Hardware stack levels used:    1
  4331 ;; This function calls:
  4332 ;;		Nothing
  4333 ;; This function is called by:
  4334 ;;		_avanzar
  4335 ;;		_giro_derecha
  4336 ;;		_giro_izquierda
  4337 ;; This function uses a non-reentrant model
  4338 ;;
  4339                           
  4340                           
  4341                           ;psect for function _PWM3_LoadDutyValue
  4342  0EE3                     _PWM3_LoadDutyValue:
  4343  0EE3                     l1523:	
  4344                           ;incstack = 0
  4345                           ; Regs used in _PWM3_LoadDutyValue: [wreg+status,2+status,0]
  4346                           
  4347                           
  4348                           ;principal.c: 297: void PWM3_LoadDutyValue(uint16_t dutyValue);principal.c: 298: {;princ
      +                          ipal.c: 299:     PWM3DCH = (dutyValue & 0x03FC) >> 2;
  4349  0EE3  0871               	movf	PWM3_LoadDutyValue@dutyValue+1,w
  4350  0EE4  00F3               	movwf	??_PWM3_LoadDutyValue+1
  4351  0EE5  0870               	movf	PWM3_LoadDutyValue@dutyValue,w
  4352  0EE6  00F2               	movwf	??_PWM3_LoadDutyValue
  4353  0EE7  36F3               	lsrf	??_PWM3_LoadDutyValue+1,f
  4354  0EE8  0CF2               	rrf	??_PWM3_LoadDutyValue,f
  4355  0EE9  36F3               	lsrf	??_PWM3_LoadDutyValue+1,f
  4356  0EEA  0CF2               	rrf	??_PWM3_LoadDutyValue,f
  4357  0EEB  0872               	movf	??_PWM3_LoadDutyValue,w
  4358  0EEC  0146               	movlb	6	; select bank6
  4359  0EED  0095               	movwf	21	;volatile
  4360                           
  4361                           ;principal.c: 300:     PWM3DCL = (dutyValue & 0x0003) << 6;
  4362  0EEE  0870               	movf	PWM3_LoadDutyValue@dutyValue,w
  4363  0EEF  3903               	andlw	3
  4364  0EF0  00F2               	movwf	??_PWM3_LoadDutyValue
  4365  0EF1  3005               	movlw	5
  4366  0EF2                     u1305:
  4367  0EF2  35F2               	lslf	??_PWM3_LoadDutyValue,f
  4368  0EF3  3EFF               	addlw	-1
  4369  0EF4  1D03               	skipz
  4370  0EF5  2EF2               	goto	u1305
  4371  0EF6  3572               	lslf	??_PWM3_LoadDutyValue,w
  4372  0EF7  0094               	movwf	20	;volatile
  4373  0EF8                     l238:
  4374  0EF8  0008               	return
  4375  0EF9                     __end_of_PWM3_LoadDutyValue:
  4376                           
  4377                           	psect	text16
  4378  0EB1                     __ptext16:	
  4379 ;; *************** function _OSCILLATOR_Initialize *****************
  4380 ;; Defined at:
  4381 ;;		line 166 in file "principal.c"
  4382 ;; Parameters:    Size  Location     Type
  4383 ;;		None
  4384 ;; Auto vars:     Size  Location     Type
  4385 ;;		None
  4386 ;; Return value:  Size  Location     Type
  4387 ;;                  1    wreg      void 
  4388 ;; Registers used:
  4389 ;;		status,2
  4390 ;; Tracked objects:
  4391 ;;		On entry : 0/0
  4392 ;;		On exit  : 0/0
  4393 ;;		Unchanged: 0/0
  4394 ;; Data sizes:     COMMON   BANK0   BANK1   BANK2   BANK3   BANK4   BANK5   BANK6
  4395 ;;      Params:         0       0       0       0       0       0       0       0
  4396 ;;      Locals:         0       0       0       0       0       0       0       0
  4397 ;;      Temps:          0       0       0       0       0       0       0       0
  4398 ;;      Totals:         0       0       0       0       0       0       0       0
  4399 ;;Total ram usage:        0 bytes
  4400 ;; Hardware stack levels used:    1
  4401 ;; This function calls:
  4402 ;;		Nothing
  4403 ;; This function is called by:
  4404 ;;		_main
  4405 ;; This function uses a non-reentrant model
  4406 ;;
  4407                           
  4408                           
  4409                           ;psect for function _OSCILLATOR_Initialize
  4410  0EB1                     _OSCILLATOR_Initialize:
  4411  0EB1                     l1341:	
  4412                           ;incstack = 0
  4413                           ; Regs used in _OSCILLATOR_Initialize: [status,2]
  4414                           
  4415                           
  4416                           ;principal.c: 168:     OSCEN = 0x00;
  4417  0EB1  0151               	movlb	17	; select bank17
  4418  0EB2  0191               	clrf	17	;volatile
  4419                           
  4420                           ;principal.c: 169:     OSCFRQ = 0x00;
  4421  0EB3  0193               	clrf	19	;volatile
  4422                           
  4423                           ;principal.c: 170:     OSCTUNE = 0x00;
  4424  0EB4  0192               	clrf	18	;volatile
  4425  0EB5                     l169:
  4426  0EB5  0008               	return
  4427  0EB6                     __end_of_OSCILLATOR_Initialize:
  4428                           
  4429                           	psect	text17
  4430  0ED5                     __ptext17:	
  4431 ;; *************** function _InicializacionTimer2 *****************
  4432 ;; Defined at:
  4433 ;;		line 272 in file "principal.c"
  4434 ;; Parameters:    Size  Location     Type
  4435 ;;		None
  4436 ;; Auto vars:     Size  Location     Type
  4437 ;;		None
  4438 ;; Return value:  Size  Location     Type
  4439 ;;                  1    wreg      void 
  4440 ;; Registers used:
  4441 ;;		wreg, status,2
  4442 ;; Tracked objects:
  4443 ;;		On entry : 0/0
  4444 ;;		On exit  : 0/0
  4445 ;;		Unchanged: 0/0
  4446 ;; Data sizes:     COMMON   BANK0   BANK1   BANK2   BANK3   BANK4   BANK5   BANK6
  4447 ;;      Params:         0       0       0       0       0       0       0       0
  4448 ;;      Locals:         0       0       0       0       0       0       0       0
  4449 ;;      Temps:          0       0       0       0       0       0       0       0
  4450 ;;      Totals:         0       0       0       0       0       0       0       0
  4451 ;;Total ram usage:        0 bytes
  4452 ;; Hardware stack levels used:    1
  4453 ;; This function calls:
  4454 ;;		Nothing
  4455 ;; This function is called by:
  4456 ;;		_main
  4457 ;; This function uses a non-reentrant model
  4458 ;;
  4459                           
  4460                           
  4461                           ;psect for function _InicializacionTimer2
  4462  0ED5                     _InicializacionTimer2:
  4463  0ED5                     l1415:	
  4464                           ;incstack = 0
  4465                           ; Regs used in _InicializacionTimer2: [wreg+status,2]
  4466                           
  4467                           
  4468                           ;principal.c: 274:     T2CLKCON = 0x01;
  4469  0ED5  3001               	movlw	1
  4470  0ED6  0145               	movlb	5	; select bank5
  4471  0ED7  0090               	movwf	16	;volatile
  4472  0ED8                     l1417:
  4473                           
  4474                           ;principal.c: 275:     T2HLT = 0x00;
  4475  0ED8  018F               	clrf	15	;volatile
  4476  0ED9                     l1419:
  4477                           
  4478                           ;principal.c: 276:     T2RST = 0x00;
  4479  0ED9  0191               	clrf	17	;volatile
  4480                           
  4481                           ;principal.c: 277:     T2PR = 249;
  4482  0EDA  30F9               	movlw	249
  4483  0EDB  008D               	movwf	13	;volatile
  4484  0EDC                     l1421:
  4485                           
  4486                           ;principal.c: 278:     T2TMR = 0x00;
  4487  0EDC  018C               	clrf	12	;volatile
  4488  0EDD                     l1423:
  4489                           
  4490                           ;principal.c: 279:     PIR1bits.TMR2IF = 0;
  4491  0EDD  014E               	movlb	14	; select bank14
  4492  0EDE  130D               	bcf	13,6	;volatile
  4493  0EDF                     l1425:
  4494                           
  4495                           ;principal.c: 280:     T2CON = 0b10000000;
  4496  0EDF  3080               	movlw	128
  4497  0EE0  0145               	movlb	5	; select bank5
  4498  0EE1  008E               	movwf	14	;volatile
  4499  0EE2                     l229:
  4500  0EE2  0008               	return
  4501  0EE3                     __end_of_InicializacionTimer2:
  4502                           
  4503                           	psect	text18
  4504  0F54                     __ptext18:	
  4505 ;; *************** function _InicializacionPuertos *****************
  4506 ;; Defined at:
  4507 ;;		line 94 in file "principal.c"
  4508 ;; Parameters:    Size  Location     Type
  4509 ;;		None
  4510 ;; Auto vars:     Size  Location     Type
  4511 ;;		None
  4512 ;; Return value:  Size  Location     Type
  4513 ;;                  1    wreg      void 
  4514 ;; Registers used:
  4515 ;;		wreg, status,2
  4516 ;; Tracked objects:
  4517 ;;		On entry : 0/0
  4518 ;;		On exit  : 0/0
  4519 ;;		Unchanged: 0/0
  4520 ;; Data sizes:     COMMON   BANK0   BANK1   BANK2   BANK3   BANK4   BANK5   BANK6
  4521 ;;      Params:         0       0       0       0       0       0       0       0
  4522 ;;      Locals:         0       0       0       0       0       0       0       0
  4523 ;;      Temps:          0       0       0       0       0       0       0       0
  4524 ;;      Totals:         0       0       0       0       0       0       0       0
  4525 ;;Total ram usage:        0 bytes
  4526 ;; Hardware stack levels used:    1
  4527 ;; This function calls:
  4528 ;;		Nothing
  4529 ;; This function is called by:
  4530 ;;		_main
  4531 ;; This function uses a non-reentrant model
  4532 ;;
  4533                           
  4534                           
  4535                           ;psect for function _InicializacionPuertos
  4536  0F54                     _InicializacionPuertos:
  4537  0F54                     l1281:	
  4538                           ;incstack = 0
  4539                           ; Regs used in _InicializacionPuertos: [wreg+status,2]
  4540                           
  4541                           
  4542                           ;principal.c: 97:     LATA = 0x00;
  4543  0F54  0140               	movlb	0	; select bank0
  4544  0F55  0198               	clrf	24	;volatile
  4545                           
  4546                           ;principal.c: 98:     LATB = 0x00;
  4547  0F56  0199               	clrf	25	;volatile
  4548                           
  4549                           ;principal.c: 99:     LATC = 0x00;
  4550  0F57  019A               	clrf	26	;volatile
  4551  0F58                     l1283:
  4552                           
  4553                           ;principal.c: 102:     TRISA = 0x09;
  4554  0F58  3009               	movlw	9
  4555  0F59  0092               	movwf	18	;volatile
  4556  0F5A                     l1285:
  4557                           
  4558                           ;principal.c: 103:     TRISB = 0x90;
  4559  0F5A  3090               	movlw	144
  4560  0F5B  0093               	movwf	19	;volatile
  4561  0F5C                     l1287:
  4562                           
  4563                           ;principal.c: 104:     TRISC = 0x40;
  4564  0F5C  3040               	movlw	64
  4565  0F5D  0094               	movwf	20	;volatile
  4566  0F5E                     l1289:
  4567                           
  4568                           ;principal.c: 107:     ANSELC = 0x00;
  4569  0F5E  017E               	movlb	62	; select bank62
  4570  0F5F  01CE               	clrf	78	;volatile
  4571  0F60                     l1291:
  4572                           
  4573                           ;principal.c: 108:     ANSELB = 0x00;
  4574  0F60  01C3               	clrf	67	;volatile
  4575  0F61                     l1293:
  4576                           
  4577                           ;principal.c: 109:     ANSELA = 0x01;
  4578  0F61  3001               	movlw	1
  4579  0F62  00B8               	movwf	56	;volatile
  4580                           
  4581                           ;principal.c: 112:     WPUB = 0x00;
  4582  0F63  01C4               	clrf	68	;volatile
  4583                           
  4584                           ;principal.c: 113:     WPUA = 0x00;
  4585  0F64  01B9               	clrf	57	;volatile
  4586                           
  4587                           ;principal.c: 114:     WPUC = 0x00;
  4588  0F65  01CF               	clrf	79	;volatile
  4589                           
  4590                           ;principal.c: 117:     ODCONA = 0x00;
  4591  0F66  01BA               	clrf	58	;volatile
  4592                           
  4593                           ;principal.c: 118:     ODCONB = 0x00;
  4594  0F67  01C5               	clrf	69	;volatile
  4595                           
  4596                           ;principal.c: 119:     ODCONC = 0x00;
  4597  0F68  01D0               	clrf	80	;volatile
  4598  0F69                     l1295:
  4599                           
  4600                           ;principal.c: 122:     SLRCONA = 0x37;
  4601  0F69  3037               	movlw	55
  4602  0F6A  00BB               	movwf	59	;volatile
  4603  0F6B                     l1297:
  4604                           
  4605                           ;principal.c: 123:     SLRCONB = 0xF0;
  4606  0F6B  30F0               	movlw	240
  4607  0F6C  00C6               	movwf	70	;volatile
  4608  0F6D                     l1299:
  4609                           
  4610                           ;principal.c: 124:     SLRCONC = 0xFF;
  4611  0F6D  30FF               	movlw	255
  4612  0F6E  00D1               	movwf	81	;volatile
  4613  0F6F                     l1301:
  4614                           
  4615                           ;principal.c: 127:     INLVLA = 0x3F;
  4616  0F6F  303F               	movlw	63
  4617  0F70  00BC               	movwf	60	;volatile
  4618  0F71                     l1303:
  4619                           
  4620                           ;principal.c: 128:     INLVLB = 0xF0;
  4621  0F71  30F0               	movlw	240
  4622  0F72  00C7               	movwf	71	;volatile
  4623  0F73                     l1305:
  4624                           
  4625                           ;principal.c: 129:     INLVLC = 0xFF;
  4626  0F73  30FF               	movlw	255
  4627  0F74  00D2               	movwf	82	;volatile
  4628  0F75                     l1307:
  4629                           
  4630                           ;principal.c: 133:     TRISA1 = 0;
  4631  0F75  0140               	movlb	0	; select bank0
  4632  0F76  1092               	bcf	18,1	;volatile
  4633  0F77                     l1309:
  4634                           
  4635                           ;principal.c: 134:     TRISA2 = 0;
  4636  0F77  1112               	bcf	18,2	;volatile
  4637  0F78                     l1311:
  4638                           
  4639                           ;principal.c: 135:     TRISA4 = 0;
  4640  0F78  1212               	bcf	18,4	;volatile
  4641  0F79                     l1313:
  4642                           
  4643                           ;principal.c: 136:     TRISA5 = 0;
  4644  0F79  1292               	bcf	18,5	;volatile
  4645  0F7A                     l1315:
  4646                           
  4647                           ;principal.c: 137:     TRISB6 = 0;
  4648  0F7A  1313               	bcf	19,6	;volatile
  4649  0F7B                     l1317:
  4650                           
  4651                           ;principal.c: 138:     TRISB5 = 0;
  4652  0F7B  1293               	bcf	19,5	;volatile
  4653  0F7C                     l1319:
  4654                           
  4655                           ;principal.c: 139:     TRISC0 = 0;
  4656  0F7C  1014               	bcf	20,0	;volatile
  4657  0F7D                     l1321:
  4658                           
  4659                           ;principal.c: 140:     TRISC1 = 0;
  4660  0F7D  1094               	bcf	20,1	;volatile
  4661  0F7E                     l1323:
  4662                           
  4663                           ;principal.c: 141:     TRISC3 = 0;
  4664  0F7E  1194               	bcf	20,3	;volatile
  4665  0F7F                     l1325:
  4666                           
  4667                           ;principal.c: 142:     TRISC4 = 0;
  4668  0F7F  1214               	bcf	20,4	;volatile
  4669  0F80                     l1327:
  4670                           
  4671                           ;principal.c: 143:     TRISC5 = 0;
  4672  0F80  1294               	bcf	20,5	;volatile
  4673  0F81                     l1329:
  4674                           
  4675                           ;principal.c: 144:     TRISC7 = 0;
  4676  0F81  1394               	bcf	20,7	;volatile
  4677  0F82                     l1331:
  4678                           
  4679                           ;principal.c: 146:     TRISC6 = 1;
  4680  0F82  1714               	bsf	20,6	;volatile
  4681  0F83                     l1333:
  4682                           
  4683                           ;principal.c: 147:     TRISB4 = 1;
  4684  0F83  1613               	bsf	19,4	;volatile
  4685  0F84                     l1335:
  4686                           
  4687                           ;principal.c: 148:     TRISB7 = 1;
  4688  0F84  1793               	bsf	19,7	;volatile
  4689  0F85                     l1337:
  4690                           
  4691                           ;principal.c: 150:     RA1PPS = 0x04;
  4692  0F85  3004               	movlw	4
  4693  0F86  017E               	movlb	62	; select bank62
  4694  0F87  0091               	movwf	17	;volatile
  4695  0F88                     l1339:
  4696                           
  4697                           ;principal.c: 151:     RC3PPS = 0x03;
  4698  0F88  3003               	movlw	3
  4699  0F89  00A3               	movwf	35	;volatile
  4700  0F8A                     l163:
  4701  0F8A  0008               	return
  4702  0F8B                     __end_of_InicializacionPuertos:
  4703                           
  4704                           	psect	text19
  4705  0EC4                     __ptext19:	
  4706 ;; *************** function _InicializacionPWM4 *****************
  4707 ;; Defined at:
  4708 ;;		line 290 in file "principal.c"
  4709 ;; Parameters:    Size  Location     Type
  4710 ;;		None
  4711 ;; Auto vars:     Size  Location     Type
  4712 ;;		None
  4713 ;; Return value:  Size  Location     Type
  4714 ;;                  1    wreg      void 
  4715 ;; Registers used:
  4716 ;;		wreg
  4717 ;; Tracked objects:
  4718 ;;		On entry : 0/0
  4719 ;;		On exit  : 0/0
  4720 ;;		Unchanged: 0/0
  4721 ;; Data sizes:     COMMON   BANK0   BANK1   BANK2   BANK3   BANK4   BANK5   BANK6
  4722 ;;      Params:         0       0       0       0       0       0       0       0
  4723 ;;      Locals:         0       0       0       0       0       0       0       0
  4724 ;;      Temps:          0       0       0       0       0       0       0       0
  4725 ;;      Totals:         0       0       0       0       0       0       0       0
  4726 ;;Total ram usage:        0 bytes
  4727 ;; Hardware stack levels used:    1
  4728 ;; This function calls:
  4729 ;;		Nothing
  4730 ;; This function is called by:
  4731 ;;		_main
  4732 ;; This function uses a non-reentrant model
  4733 ;;
  4734                           
  4735                           
  4736                           ;psect for function _InicializacionPWM4
  4737  0EC4                     _InicializacionPWM4:
  4738  0EC4                     l1429:	
  4739                           ;incstack = 0
  4740                           ; Regs used in _InicializacionPWM4: [wreg]
  4741                           
  4742                           
  4743                           ;principal.c: 292:     PWM4CON = 0x90;
  4744  0EC4  3090               	movlw	144
  4745  0EC5  0146               	movlb	6	; select bank6
  4746  0EC6  009A               	movwf	26	;volatile
  4747                           
  4748                           ;principal.c: 293:     PWM4DCH = 0x3E;
  4749  0EC7  303E               	movlw	62
  4750  0EC8  0099               	movwf	25	;volatile
  4751                           
  4752                           ;principal.c: 294:     PWM4DCL = 0x40;
  4753  0EC9  3040               	movlw	64
  4754  0ECA  0098               	movwf	24	;volatile
  4755  0ECB                     l235:
  4756  0ECB  0008               	return
  4757  0ECC                     __end_of_InicializacionPWM4:
  4758                           
  4759                           	psect	text20
  4760  0EBC                     __ptext20:	
  4761 ;; *************** function _InicializacionPWM3 *****************
  4762 ;; Defined at:
  4763 ;;		line 283 in file "principal.c"
  4764 ;; Parameters:    Size  Location     Type
  4765 ;;		None
  4766 ;; Auto vars:     Size  Location     Type
  4767 ;;		None
  4768 ;; Return value:  Size  Location     Type
  4769 ;;                  1    wreg      void 
  4770 ;; Registers used:
  4771 ;;		wreg
  4772 ;; Tracked objects:
  4773 ;;		On entry : 0/0
  4774 ;;		On exit  : 0/0
  4775 ;;		Unchanged: 0/0
  4776 ;; Data sizes:     COMMON   BANK0   BANK1   BANK2   BANK3   BANK4   BANK5   BANK6
  4777 ;;      Params:         0       0       0       0       0       0       0       0
  4778 ;;      Locals:         0       0       0       0       0       0       0       0
  4779 ;;      Temps:          0       0       0       0       0       0       0       0
  4780 ;;      Totals:         0       0       0       0       0       0       0       0
  4781 ;;Total ram usage:        0 bytes
  4782 ;; Hardware stack levels used:    1
  4783 ;; This function calls:
  4784 ;;		Nothing
  4785 ;; This function is called by:
  4786 ;;		_main
  4787 ;; This function uses a non-reentrant model
  4788 ;;
  4789                           
  4790                           
  4791                           ;psect for function _InicializacionPWM3
  4792  0EBC                     _InicializacionPWM3:
  4793  0EBC                     l1427:	
  4794                           ;incstack = 0
  4795                           ; Regs used in _InicializacionPWM3: [wreg]
  4796                           
  4797                           
  4798                           ;principal.c: 285:     PWM3CON = 0x90;
  4799  0EBC  3090               	movlw	144
  4800  0EBD  0146               	movlb	6	; select bank6
  4801  0EBE  0096               	movwf	22	;volatile
  4802                           
  4803                           ;principal.c: 286:     PWM3DCH = 0x3E;
  4804  0EBF  303E               	movlw	62
  4805  0EC0  0095               	movwf	21	;volatile
  4806                           
  4807                           ;principal.c: 287:     PWM3DCL = 0x40;
  4808  0EC1  3040               	movlw	64
  4809  0EC2  0094               	movwf	20	;volatile
  4810  0EC3                     l232:
  4811  0EC3  0008               	return
  4812  0EC4                     __end_of_InicializacionPWM3:
  4813  007E                     btemp	set	126	;btemp
  4814  007E                     wtemp0	set	126
  4815                           
  4816                           	psect	config
  4817                           
  4818                           ;Config register CONFIG1 @ 0x8007
  4819                           ;	External Oscillator Mode Selection bits
  4820                           ;	FEXTOSC = OFF, Oscillator not enabled
  4821                           ;	Power-up Default Value for COSC bits
  4822                           ;	RSTOSC = HFINTOSC_1MHZ, HFINTOSC (1 MHz)
  4823                           ;	Clock Out Enable bit
  4824                           ;	CLKOUTEN = OFF, CLKOUT function is disabled; I/O function on RA4
  4825                           ;	VDD Range Analog Calibration Selection bit
  4826                           ;	VDDAR = HI, Internal analog systems are calibrated for operation between VDD = 2.3V - 
      +                          5.5V
  4827  8007                     	org	32775
  4828  8007  3FED               	dw	16365
  4829                           
  4830                           ;Config register CONFIG2 @ 0x8008
  4831                           ;	Master Clear Enable bit
  4832                           ;	MCLRE = EXTMCLR, If LVP = 0, MCLR pin is MCLR; If LVP = 1, RA3 pin function is MCLR
  4833                           ;	Power-up Timer Selection bits
  4834                           ;	PWRTS = PWRT_OFF, PWRT is disabled
  4835                           ;	WDT Operating Mode bits
  4836                           ;	WDTE = OFF, WDT disabled; SEN is ignored
  4837                           ;	Brown-out Reset Enable bits
  4838                           ;	BOREN = ON, Brown-out Reset Enabled, SBOREN bit is ignored
  4839                           ;	Brown-out Reset Voltage Selection bit
  4840                           ;	BORV = LO, Brown-out Reset Voltage (VBOR) set to 1.9V
  4841                           ;	PPSLOCKED One-Way Set Enable bit
  4842                           ;	PPS1WAY = ON, The PPSLOCKED bit can be cleared and set only once in software
  4843                           ;	Stack Overflow/Underflow Reset Enable bit
  4844                           ;	STVREN = ON, Stack Overflow or Underflow will cause a reset
  4845  8008                     	org	32776
  4846  8008  3FE7               	dw	16359
  4847                           
  4848                           ;Config register CONFIG4 @ 0x800A
  4849                           ;	Boot Block Size Selection bits
  4850                           ;	BBSIZE = BB512, 512 words boot block size
  4851                           ;	Boot Block Enable bit
  4852                           ;	BBEN = OFF, Boot Block is disabled
  4853                           ;	SAF Enable bit
  4854                           ;	SAFEN = OFF, SAF is disabled
  4855                           ;	Application Block Write Protection bit
  4856                           ;	WRTAPP = OFF, Application Block is not write-protected
  4857                           ;	Boot Block Write Protection bit
  4858                           ;	WRTB = OFF, Boot Block is not write-protected
  4859                           ;	Configuration Registers Write Protection bit
  4860                           ;	WRTC = OFF, Configuration Registers are not write-protected
  4861                           ;	Storage Area Flash (SAF) Write Protection bit
  4862                           ;	WRTSAF = OFF, SAF is not write-protected
  4863                           ;	Low Voltage Programming Enable bit
  4864                           ;	LVP = ON, Low Voltage programming enabled. MCLR/Vpp pin function is MCLR. MCLRE Config
      +                          uration bit is ignored.
  4865  800A                     	org	32778
  4866  800A  3FFF               	dw	16383
  4867                           
  4868                           ;Config register CONFIG5 @ 0x800B
  4869                           ;	User Program Flash Memory Code Protection bit
  4870                           ;	CP = OFF, User Program Flash Memory code protection is disabled
  4871  800B                     	org	32779
  4872  800B  3FFF               	dw	16383

Data Sizes:
    Strings     0
    Constant    0
    Data        4
    BSS         17
    Persistent  32
    Stack       0

Auto Spaces:
    Space          Size  Autos    Used
    COMMON           14     14      14
    BANK0            80     67      80
    BANK1            80      0       8
    BANK2            80      0       0
    BANK3            80      0       0
    BANK4            80      0       0
    BANK5            80      0       0
    BANK6            16      0       0

Pointer List with Targets:

    None.

Critical Paths under _main in COMMON

    _sensor_izquierdo->___xxtofl
    _sensor_derecho->___xxtofl
    _sensor_centro->___xxtofl
    ___fltol->___xxtofl
    ___flmul->___xxtofl
    ___fldiv->___xxtofl
    _movimientos->_avanzar
    _giro_izquierda->_PWM3_LoadDutyValue
    _giro_izquierda->_PWM4_LoadDutyValue
    _giro_derecha->_PWM3_LoadDutyValue
    _giro_derecha->_PWM4_LoadDutyValue
    _avanzar->_PWM3_LoadDutyValue
    _avanzar->_PWM4_LoadDutyValue

Critical Paths under _main in BANK0

    _main->_sensor_centro
    _main->_sensor_derecho
    _main->_sensor_izquierdo
    _sensor_izquierdo->___fltol
    _sensor_derecho->___fltol
    _sensor_centro->___fltol
    ___fltol->___fldiv
    ___fldiv->___flmul

Critical Paths under _main in BANK1

    None.

Critical Paths under _main in BANK2

    None.

Critical Paths under _main in BANK3

    None.

Critical Paths under _main in BANK4

    None.

Critical Paths under _main in BANK5

    None.

Critical Paths under _main in BANK6

    None.

Call Graph Tables:

 ---------------------------------------------------------------------------------
 (Depth) Function   	        Calls       Base Space   Used Autos Params    Refs
 ---------------------------------------------------------------------------------
 (0) _main                                                 1     1      0   18777
                                             66 BANK0      1     1      0
                 _InicializacionPWM3
                 _InicializacionPWM4
              _InicializacionPuertos
               _InicializacionTimer2
              _OSCILLATOR_Initialize
                        _movimientos
                      _sensor_centro
                     _sensor_derecho
                   _sensor_izquierdo
 ---------------------------------------------------------------------------------
 (1) _sensor_izquierdo                                     3     3      0    5305
                                             63 BANK0      3     3      0
                            ___fldiv
                            ___flmul
                            ___fltol
                           ___xxtofl
 ---------------------------------------------------------------------------------
 (1) _sensor_derecho                                       3     3      0    5305
                                             63 BANK0      3     3      0
                            ___fldiv
                            ___flmul
                            ___fltol
                           ___xxtofl
 ---------------------------------------------------------------------------------
 (1) _sensor_centro                                        3     3      0    5305
                                             63 BANK0      3     3      0
                            ___fldiv
                            ___flmul
                            ___fltol
                           ___xxtofl
 ---------------------------------------------------------------------------------
 (2) ___xxtofl                                            14    10      4     550
                                              0 COMMON    14    10      4
 ---------------------------------------------------------------------------------
 (2) ___fltol                                             11     7      4     457
                                             52 BANK0     11     7      4
                            ___fldiv (ARG)
                            ___flmul (ARG)
                           ___xxtofl (ARG)
 ---------------------------------------------------------------------------------
 (2) ___flmul                                             26    18      8    2721
                                              0 BANK0     26    18      8
                          __Umul8_16
                           ___xxtofl (ARG)
 ---------------------------------------------------------------------------------
 (3) __Umul8_16                                            9     7      2     799
                                              0 COMMON     9     7      2
 ---------------------------------------------------------------------------------
 (2) ___fldiv                                             26    18      8    1577
                                             26 BANK0     26    18      8
                            ___flmul (ARG)
                           ___xxtofl (ARG)
 ---------------------------------------------------------------------------------
 (1) _movimientos                                          0     0      0    2862
                            _avanzar
                          _detenerse
                       _giro_derecha
                     _giro_izquierda
 ---------------------------------------------------------------------------------
 (2) _giro_izquierda                                       4     4      0     894
                                              4 COMMON     4     4      0
                 _PWM3_LoadDutyValue
                 _PWM4_LoadDutyValue
 ---------------------------------------------------------------------------------
 (2) _giro_derecha                                         4     4      0     894
                                              4 COMMON     4     4      0
                 _PWM3_LoadDutyValue
                 _PWM4_LoadDutyValue
 ---------------------------------------------------------------------------------
 (2) _detenerse                                            0     0      0       0
 ---------------------------------------------------------------------------------
 (2) _avanzar                                              5     5      0    1074
                                              4 COMMON     5     5      0
                 _PWM3_LoadDutyValue
                 _PWM4_LoadDutyValue
 ---------------------------------------------------------------------------------
 (3) _PWM4_LoadDutyValue                                   4     2      2     424
                                              0 COMMON     4     2      2
 ---------------------------------------------------------------------------------
 (3) _PWM3_LoadDutyValue                                   4     2      2     424
                                              0 COMMON     4     2      2
 ---------------------------------------------------------------------------------
 (1) _OSCILLATOR_Initialize                                0     0      0       0
 ---------------------------------------------------------------------------------
 (1) _InicializacionTimer2                                 0     0      0       0
 ---------------------------------------------------------------------------------
 (1) _InicializacionPuertos                                0     0      0       0
 ---------------------------------------------------------------------------------
 (1) _InicializacionPWM4                                   0     0      0       0
 ---------------------------------------------------------------------------------
 (1) _InicializacionPWM3                                   0     0      0       0
 ---------------------------------------------------------------------------------
 Estimated maximum stack depth 3
 ---------------------------------------------------------------------------------

 Call Graph Graphs:

 _main (ROOT)
   _InicializacionPWM3
   _InicializacionPWM4
   _InicializacionPuertos
   _InicializacionTimer2
   _OSCILLATOR_Initialize
   _movimientos
     _avanzar
       _PWM3_LoadDutyValue
       _PWM4_LoadDutyValue
     _detenerse
     _giro_derecha
       _PWM3_LoadDutyValue
       _PWM4_LoadDutyValue
     _giro_izquierda
       _PWM3_LoadDutyValue
       _PWM4_LoadDutyValue
   _sensor_centro
     ___fldiv
       ___flmul (ARG)
         __Umul8_16
         ___xxtofl (ARG)
       ___xxtofl (ARG)
     ___flmul
       __Umul8_16
       ___xxtofl (ARG)
     ___fltol
       ___fldiv (ARG)
         ___flmul (ARG)
           __Umul8_16
           ___xxtofl (ARG)
         ___xxtofl (ARG)
       ___flmul (ARG)
         __Umul8_16
         ___xxtofl (ARG)
       ___xxtofl (ARG)
     ___xxtofl
   _sensor_derecho
     ___fldiv
       ___flmul (ARG)
         __Umul8_16
         ___xxtofl (ARG)
       ___xxtofl (ARG)
     ___flmul
       __Umul8_16
       ___xxtofl (ARG)
     ___fltol
       ___fldiv (ARG)
         ___flmul (ARG)
           __Umul8_16
           ___xxtofl (ARG)
         ___xxtofl (ARG)
       ___flmul (ARG)
         __Umul8_16
         ___xxtofl (ARG)
       ___xxtofl (ARG)
     ___xxtofl
   _sensor_izquierdo
     ___fldiv
       ___flmul (ARG)
         __Umul8_16
         ___xxtofl (ARG)
       ___xxtofl (ARG)
     ___flmul
       __Umul8_16
       ___xxtofl (ARG)
     ___fltol
       ___fldiv (ARG)
         ___flmul (ARG)
           __Umul8_16
           ___xxtofl (ARG)
         ___xxtofl (ARG)
       ___flmul (ARG)
         __Umul8_16
         ___xxtofl (ARG)
       ___xxtofl (ARG)
     ___xxtofl

 Address spaces:
Name               Size   Autos  Total    Cost      Usage
BIGRAM             1F0      0       0       0        0.0%
NULL                 0      0       0       0        0.0%
CODE                 0      0       0       0        0.0%
BITCOMMON            E      0       0       1        0.0%
BITSFR0              0      0       0       1        0.0%
SFR0                 0      0       0       1        0.0%
COMMON               E      E       E       2      100.0%
BITSFR1              0      0       0       2        0.0%
SFR1                 0      0       0       2        0.0%
BITSFR2              0      0       0       3        0.0%
SFR2                 0      0       0       3        0.0%
STACK                0      0       0       3        0.0%
BITSFR3              0      0       0       4        0.0%
SFR3                 0      0       0       4        0.0%
ABS                  0      0      66       4        0.0%
BITBANK0            50      0       0       5        0.0%
BITSFR4              0      0       0       5        0.0%
SFR4                 0      0       0       5        0.0%
BANK0               50     43      50       6      100.0%
BITSFR5              0      0       0       6        0.0%
SFR5                 0      0       0       6        0.0%
BITBANK1            50      0       0       7        0.0%
BITSFR6              0      0       0       7        0.0%
SFR6                 0      0       0       7        0.0%
BANK1               50      0       8       8       10.0%
BITSFR7              0      0       0       8        0.0%
SFR7                 0      0       0       8        0.0%
BITBANK2            50      0       0       9        0.0%
BITSFR8              0      0       0       9        0.0%
SFR8                 0      0       0       9        0.0%
BANK2               50      0       0      10        0.0%
BITSFR9              0      0       0      10        0.0%
SFR9                 0      0       0      10        0.0%
BITBANK3            50      0       0      11        0.0%
BITSFR10             0      0       0      11        0.0%
SFR10                0      0       0      11        0.0%
BANK3               50      0       0      12        0.0%
BITSFR11             0      0       0      12        0.0%
SFR11                0      0       0      12        0.0%
BITBANK4            50      0       0      13        0.0%
BITSFR12             0      0       0      13        0.0%
SFR12                0      0       0      13        0.0%
BANK4               50      0       0      14        0.0%
BITSFR13             0      0       0      14        0.0%
SFR13                0      0       0      14        0.0%
BITBANK5            50      0       0      15        0.0%
BITSFR14             0      0       0      15        0.0%
SFR14                0      0       0      15        0.0%
BANK5               50      0       0      16        0.0%
BITSFR15             0      0       0      16        0.0%
SFR15                0      0       0      16        0.0%
BITBANK6            10      0       0      17        0.0%
BITSFR16             0      0       0      17        0.0%
SFR16                0      0       0      17        0.0%
BANK6               10      0       0      18        0.0%
BITSFR17             0      0       0      18        0.0%
SFR17                0      0       0      18        0.0%
BITSFR18             0      0       0      19        0.0%
SFR18                0      0       0      19        0.0%
DATA                 0      0      66      19        0.0%
BITSFR19             0      0       0      20        0.0%
SFR19                0      0       0      20        0.0%
BITSFR20             0      0       0      21        0.0%
SFR20                0      0       0      21        0.0%
BITSFR21             0      0       0      22        0.0%
SFR21                0      0       0      22        0.0%
BITSFR22             0      0       0      23        0.0%
SFR22                0      0       0      23        0.0%
BITSFR23             0      0       0      24        0.0%
SFR23                0      0       0      24        0.0%
BITSFR24             0      0       0      25        0.0%
SFR24                0      0       0      25        0.0%
BITSFR25             0      0       0      26        0.0%
SFR25                0      0       0      26        0.0%
BITSFR26             0      0       0      27        0.0%
SFR26                0      0       0      27        0.0%
BITSFR27             0      0       0      28        0.0%
SFR27                0      0       0      28        0.0%
BITSFR28             0      0       0      29        0.0%
SFR28                0      0       0      29        0.0%
BITSFR29             0      0       0      30        0.0%
SFR29                0      0       0      30        0.0%
BITSFR30             0      0       0      31        0.0%
SFR30                0      0       0      31        0.0%
BITSFR31             0      0       0      32        0.0%
SFR31                0      0       0      32        0.0%
BITSFR32             0      0       0      33        0.0%
SFR32                0      0       0      33        0.0%
BITSFR33             0      0       0      34        0.0%
SFR33                0      0       0      34        0.0%
BITSFR34             0      0       0      35        0.0%
SFR34                0      0       0      35        0.0%
BITSFR35             0      0       0      36        0.0%
SFR35                0      0       0      36        0.0%
BITSFR36             0      0       0      37        0.0%
SFR36                0      0       0      37        0.0%
BITSFR37             0      0       0      38        0.0%
SFR37                0      0       0      38        0.0%
BITSFR38             0      0       0      39        0.0%
SFR38                0      0       0      39        0.0%
BITSFR39             0      0       0      40        0.0%
SFR39                0      0       0      40        0.0%
BITSFR40             0      0       0      41        0.0%
SFR40                0      0       0      41        0.0%
BITSFR41             0      0       0      42        0.0%
SFR41                0      0       0      42        0.0%
BITSFR42             0      0       0      43        0.0%
SFR42                0      0       0      43        0.0%
BITSFR43             0      0       0      44        0.0%
SFR43                0      0       0      44        0.0%
BITSFR44             0      0       0      45        0.0%
SFR44                0      0       0      45        0.0%
BITSFR45             0      0       0      46        0.0%
SFR45                0      0       0      46        0.0%
BITSFR46             0      0       0      47        0.0%
SFR46                0      0       0      47        0.0%
BITSFR47             0      0       0      48        0.0%
SFR47                0      0       0      48        0.0%
BITSFR48             0      0       0      49        0.0%
SFR48                0      0       0      49        0.0%
BITSFR49             0      0       0      50        0.0%
SFR49                0      0       0      50        0.0%
BITSFR50             0      0       0      51        0.0%
SFR50                0      0       0      51        0.0%
BITSFR51             0      0       0      52        0.0%
SFR51                0      0       0      52        0.0%
BITSFR52             0      0       0      53        0.0%
SFR52                0      0       0      53        0.0%
BITSFR53             0      0       0      54        0.0%
SFR53                0      0       0      54        0.0%
BITSFR54             0      0       0      55        0.0%
SFR54                0      0       0      55        0.0%
BITSFR55             0      0       0      56        0.0%
SFR55                0      0       0      56        0.0%
BITSFR56             0      0       0      57        0.0%
SFR56                0      0       0      57        0.0%
BITSFR57             0      0       0      58        0.0%
SFR57                0      0       0      58        0.0%
BITSFR58             0      0       0      59        0.0%
SFR58                0      0       0      59        0.0%
BITSFR59             0      0       0      60        0.0%
SFR59                0      0       0      60        0.0%
BITSFR60             0      0       0      61        0.0%
SFR60                0      0       0      61        0.0%
BITSFR61             0      0       0      62        0.0%
SFR61                0      0       0      62        0.0%
BITSFR62             0      0       0      63        0.0%
SFR62                0      0       0      63        0.0%
BITSFR63             0      0       0      64        0.0%
SFR63                0      0       0      64        0.0%


Microchip Technology PIC Macro Assembler V2.31 build 20201012212115 
Symbol Table                                                                                   Wed May 26 16:44:17 2021

                  ___fldiv@aexp 0053                    ___fldiv@bexp 0052                    ___fldiv@sign 004B  
               ??_sensor_centro 005F             __Umul8_16@word_mpld 0076                             l202 0214  
                           l221 02A9                             l214 0299                             l207 028D  
                           l232 0EC3                             l216 029D                             l241 001B  
                           l217 029F                             l226 0328                             l235 0ECB  
                           l163 0F8A                             l229 0EE2                             l245 005C  
                           l238 0EF8                             l262 0F14                             l271 0ED4  
                           l183 0180                             l256 00D7                             l176 0170  
                           l169 0EB5                             l178 0174                             l283 0165  
                           l179 0176                             l195 0204                             l268 0F30  
                           l188 01F9                             l197 0208                             l198 020A  
                           l289 0165                             l722 042C                             l724 0588  
                           l820 03AC                             l812 0386                             l566 0FEA  
                           l806 034B                             l743 0556                             l559 0FFF  
                           l744 0570                             l808 03D4                             l569 0FFF  
                           l746 057F                             l738 050A                             l762 07DF  
                           l819 03A0                             l781 0F43                             l774 07D3  
                           l783 0F53                             l768 075B                 _timer1ReloadVal 00A0  
              ??_sensor_derecho 005F                             wreg 0009                    ___flmul@aexp 0032  
                  ___flmul@bexp 0033                    ___flmul@sign 002D                    ___flmul@temp 0038  
                  ___flmul@prod 0034                    ___fltol@exp1 005E                            l2001 01F3  
                          l2003 01F7                            l2011 0202                            l1301 0F6F  
                          l2101 0145                            l2021 0236                            l2013 020F  
                          l2005 01FA                            l1311 0F78                            l1303 0F71  
                          l2111 015A                            l2103 014A                            l2031 0294  
                          l2023 027A                            l2015 021B                            l2007 0200  
                          l1321 0F7D                            l1313 0F79                            l1305 0F73  
                          l2113 015F                            l2105 014F                            l2041 02CC  
                          l2033 0296                            l2025 0287                            l2017 0231  
                          l2009 0201                            l1331 0F82                            l1323 0F7E  
                          l1315 0F7A                            l1307 0F75                            l2051 0326  
                          l2043 02CF                            l2035 0297                            l2027 028B  
                          l2019 0234                            l2131 0025                            l1333 0F83  
                          l1325 0F7F                            l1317 0F7B                            l1309 0F77  
                          l1421 0EDC                            l1341 0EB1                            l2109 0155  
                          l2061 00EC                            l2053 00D8                            l2045 02D1  
                          l2037 02A4                            l2029 028E                            l2141 0046  
                          l2133 0028                            l2125 001C                            l1335 0F84  
                          l1327 0F80                            l1319 0F7C                            l1423 0EDD  
                          l1415 0ED5                            l2071 0104                            l2063 00F1  
                          l2055 00DE                            l2047 0315                            l2039 02B0  
                          l2143 004F                            l2135 002B                            l2127 001F  
                          l1337 0F85                            l1329 0F81                            l1281 0F54  
                          l1425 0EDF                            l1417 0ED8                            l1601 0F17  
                          l2081 011C                            l2073 0109                            l2065 00F6  
                          l2057 00E3                            l2049 0322                            l2137 0037  
                          l2129 0022                            l1427 0EBC                            l1339 0F88  
                          l1291 0F60                            l1283 0F58                            l1419 0ED9  
                          l1523 0EE3                            l1611 0F1C                            l1603 0F18  
                          l2091 0131                            l2075 010E                            l2067 00FB  
                          l2059 00E8                            l1531 0F3B                            l2139 003A  
                          l1429 0EC4                            l1293 0F61                            l1285 0F5A  
                          l1525 0006                            l1541 0055                            l1613 0F1D  
                          l1605 0F19                            l2093 0135                            l2085 0122  
                          l2077 0112                            l2069 00FF                            l1701 0444  
                          l1533 0F3F                            l1621 0F8B                            l1295 0F69  
                          l1287 0F5C                            l1551 007E                            l1543 0057  
                          l1615 0F23                            l1607 0F1A                            l2095 013A  
                          l2087 0127                            l2079 0117                            l1711 045B  
                          l1535 0F4A                            l1527 0F32                            l1631 0FB4  
                          l1623 0F97                            l1297 0F6B                            l1289 0F5E  
                          l1561 00B8                            l1553 008E                            l1545 0064  
                          l1609 0F1B                            l1617 0F2A                            l2097 013F  
                          l2089 012C                            l1721 0485                            l1713 046B  
                          l1705 044D                            l1537 0F4F                            l1529 0F34  
                          l1801 0593                            l1633 0FBC                            l1299 0F6D  
                          l1563 00C6                            l1555 009A                            l1547 0070  
                          l1619 0ECC                            l1571 0EFA                            l1723 048A  
                          l1731 04A4                            l1715 0473                            l1707 0452  
                          l1811 05AA                            l1803 0597                            l1651 0FE1  
                          l1643 0FCA                            l1635 0FBE                            l1627 0FA0  
                          l1557 00A1                            l1549 0077                            l1565 00D1  
                          l1581 0EFE                            l1573 0EFA                            l1741 04C9  
                          l1733 04B6                            l1725 0498                            l1717 047B  
                          l1661 03DF                            l1901 0758                            l1821 05C1  
                          l1813 05AC                            l1805 0598                            l1653 0FEF  
                          l1637 0FC2                            l1645 0FDA                            l1629 0FB3  
                          l1559 00A8                            l1583 0EFF                            l1575 0EFB  
                          l1591 0F0E                            l1567 0EF9                            l1751 04DF  
                          l1743 04D1                            l1735 04B7                            l1727 049C  
                          l1719 0483                            l1671 03F6                            l1663 03E3  
                          l1911 0771                            l1831 05D6                            l1823 05C2  
                          l1815 05B4                            l1807 059D                            l1655 0FF4  
                          l1585 0F00                            l1577 0EFC                            l1569 0EFA  
                          l1593 0F15                            l1761 04F3                            l1753 04E6  
                          l1745 04D3                            l1737 04BF                            l1729 049D  
                          l1681 040A                            l1673 03F7                            l1665 03E4  
                          l1657 03D5                            l1921 07B2                            l1913 0789  
                          l1905 0760                            l1841 05F1                            l1833 05DE  
                          l1825 05C7                            l1817 05B9                            l1809 05A2  
                          l1587 0F01                            l1579 0EFD                            l1595 0F16  
                          l1771 051C                            l1763 0507                            l1747 04DA  
                          l1755 04EA                            l1739 04C3                            l1691 0421  
                          l1683 040E                            l1667 03E9                            l1675 03F9  
                          l1659 03DB                            l1931 07CF                            l1923 07BB  
                          l1907 0765                            l1915 078D                            l1851 064C  
                          l1843 05FE                            l1835 05E3                            l1827 05CC  
                          l1819 05BD                            l1589 0F07                            l1597 0F16  
                          l1781 0564                            l1773 0520                            l1757 04EE  
                          l1749 04DE                            l1693 0422                            l1685 040F  
                          l1677 0401                            l1669 03EE                            l1933 07D7  
                          l1925 07BD                            l1917 079A                            l1909 076D  
                          l1861 0681                            l1853 0659                            l1845 060B  
                          l1837 05E8                            l1829 05D4                            l1941 0333  
                          l1599 0F16                            l1791 057B                            l1783 0567  
                          l1775 0538                            l1767 050F                            l1759 04EF  
                          l1687 0414                            l1695 0424                            l1679 0406  
                          l1927 07CA                            l1919 07A4                            l1871 06C4  
                          l1863 068E                            l1855 0666                            l1847 0625  
                          l1951 0361                            l1943 0343                            l1785 056F  
                          l1769 0514                            l1777 053C                            l1697 0434  
                          l1689 0419                            l1929 07CE                            l1881 0718  
                          l1873 06D1                            l1865 0695                            l1857 066D  
                          l1849 0632                            l1961 038D                            l1953 036C  
                          l1945 0353                            l1937 032A                            l1787 0575  
                          l1779 0549                            l1699 0440                            l1891 0737  
                          l1883 0724                            l1875 06E5                            l1867 06A9  
                          l1859 067A                            l1971 03C2                            l1963 0396  
                          l1955 0373                            l1939 032F                            l1789 0579  
                          l1885 072B                            l1893 073B                            l1877 06FA  
                          l1869 06B0                            l1797 0589                            l1973 03C7  
                          l1965 039A                            l1957 0377                            l1949 035C  
                          l1981 0166                            l1895 073F                            l1887 072F  
                          l1879 0711                            l1799 058F                            l1975 03CB  
                          l1967 03A4                            l1959 037F                            l1991 0187  
                          l1983 016C                            l1897 0740                            l1889 0730  
                          l1977 03CC                            l1969 03AE                            l1993 019D  
                          l1985 016D                            l1899 0744                            l1995 01A0  
                          l1987 016E                            l1997 01A2                            l1989 017B  
                          l1999 01E6                            u2000 0765                            u2001 0764  
                          u2010 0771                            u2011 0770                            u2020 077F  
                          u2100 0372                            u2101 0371                            u2030 079A  
                          u2031 0799                            u1400 0F30                            u1320 0F3F  
                          u2040 07B2                            u2120 038C                            u2200 0174  
                          u1305 0EF2                            u1401 0F2F                            u1321 0F3E  
                          u2041 07B1                            u2025 077B                            u2121 038B  
                          u2201 0173                            u2050 07CE                            u1410 0F97  
                          u2210 017B                            u1315 0015                            u2051 07CD  
                          u2035 0796                            u1411 0F96                            u2115 0380  
                          u2211 017A                            u1340 0F4F                            u1500 0FF4  
                          u1420 0FAD                            u2140 039A                            u2060 032F  
                          u2220 0180                            u2300 029D                            u1341 0F4E  
                          u2045 07AE                            u1501 0FF3                            u2141 0399  
                          u2061 032E                            u2221 017F                            u2301 029C  
                          _LATA 0018                            u1350 008D                            u1510 03E3  
                          u1430 0FC2                            u2150 03A0                            u2070 0333  
                          u2230 0187                            u2310 02A4                            _LATB 0019  
                          u1351 008C                            u1511 03E2                            u1335 0F44  
                          u1431 0FC1                            u2151 039F                            u2135 0390  
                          u2071 0332                            u2231 0186                            u2311 02A3  
                          _LATC 001A                            u1360 00B7                            u2400 00FB  
                          u1520 03E9                            u1440 0FC9                            u2160 03A4  
                          u2080 0353                            u2240 01F3                            u2320 02A9  
                          u1361 00B6                            u2401 00FA                            u1521 03E8  
                          u1441 0FC8                            u1425 0FA9                            u2161 03A3  
                          u2081 0352                            u2241 01F2                            u2321 02A8  
                          u1370 00D1                            u2410 0104                            u1530 03EE  
                          u2170 03B8                            u2330 02B0                            u2250 0208  
                          u1371 00D0                            u1355 0089                            u2411 0103  
                          u1531 03ED                            u2331 02AF                            u2251 0207  
                          u1380 00D7                            u2500 013A                            u2420 0109  
                          u1700 04EE                            u1620 049C                            u1540 040E  
                          u1460 0FD9                            u2180 03C7                            u2340 0322  
                          u2260 020F                            u1381 00D6                            u1365 00B3  
                          u2501 0139                            u2421 0108                            u1701 04ED  
                          u1621 049B                            u1605 048B                            u1541 040D  
                          u1461 0FD8                            u2181 03C6                            u2245 01EF  
                          u2341 0321                            u2261 020E                            u1390 0F14  
                          u2510 013F                            u2430 010E                            u2350 00DE  
                          u1710 04F3                            u1550 0414                            u1470 0FE0  
                          u2190 03CB                            u2270 0214                            u1375 00CD  
                          u1391 0F13                            u2511 013E                            u2431 010D  
                          u2351 00DD                            u1711 04F2                            u1615 0492  
                          u1551 0413                            u1471 0FDF                            u1455 0FCB  
                          u2191 03CA                            u2175 03B4                            u2095 0366  
                          u2271 0213                            u2520 0144                            u2440 0117  
                          u2360 00E3                            u1720 0507                            u1640 04B6  
                          u1560 0419                            u1800 0597                            u2280 021B  
                          u2521 0143                            u2441 0116                            u2361 00E2  
                          u1721 0506                            u1641 04B5                            u1561 0418  
                          u1801 0596                            u2345 031E                            u2281 021A  
                          u2530 014A                            u2450 011C                            u2370 00E8  
                          u1730 050E                            u1650 04C9                            u1570 0434  
                          u1810 059D                            u1490 0FEF                            u2290 0287  
                          _T2PR 028D                            u2531 0149                            u2451 011B  
                          u2371 00E7                            u1731 050D                            u1651 04C8  
                          u1635 049E                            u1571 0433                            u1811 059C  
                          u1491 0FEE                            u2291 0286                            u2540 014F  
                          u2460 0121                            u2380 00F1                            u1740 0514  
                          u1660 04D1                            u1580 0452                            u1900 06F0  
                          u1820 05A2                            u2541 014E                            u2461 0120  
                          u2381 00F0                            u1741 0513                            u1661 04D0  
                          u1645 04B2                            u1581 0451                            u1821 05A1  
                          u1485 0FE2                            u2550 0154                            u2470 0127  
                          u2390 00F6                            u1750 0520                            u1590 048A  
                          u1910 0707                            u1830 05C1                            u2551 0153  
                          u2471 0126                            u2391 00F5                            u1751 051F  
                          u1591 0489                            u1831 05C0                            u2295 0283  
                          u2607 003E                            u2560 015A                            u2480 012C  
                          u1760 052E                            u1680 04DE                            u1840 05C7  
                          u2561 0159                            u2481 012B                            u1681 04DD  
                          u1905 06EC                            u1841 05C6                            u2617 004A  
                          u2570 015F                            u2490 0131                            u1770 0549  
                          u1850 05CC                            u2571 015E                            u2491 0130  
                          u1771 0548                            u1675 04D4                            u1915 0703  
                          u1851 05CB                            u2580 0164                            u1780 0564  
                          u1940 072F                            u1860 05E3                            u2581 0163  
                          u1781 0563                            u1765 052A                            u1941 072E  
                          u1925 0712                            u1861 05E2                            u1790 0579  
                          u1870 05E8                            u1791 0578                            u1775 0545  
                          u1695 04E0                            u1935 0725                            u1871 05E7  
                          u1960 073F                            u1785 0560                            u1961 073E  
                          u1970 0744                            u1971 0743                            u1955 0731  
                          u1980 0758                            u1981 0757                            u1885 0667  
                          u2597 0032                            u1990 075F                            u1991 075E  
                          u1895 0696                            _WPUA 1F39                            _WPUB 1F44  
                          _WPUC 1F4F                            _main 001C                            _scen 006F  
                          _sder 006D                            fsr0h 0005                            indf0 0000  
                          fsr0l 0004                            _sizq 006E                            btemp 007E  
  __end_of_InicializacionTimer2 0EE3                            start 0002                 ___fldiv@new_exp 004C  
       __size_of_giro_izquierda 001C                   ?_giro_derecha 0070  __size_of_OSCILLATOR_Initialize 0005  
 __end_of_OSCILLATOR_Initialize 0EB6                   ___fltol@sign1 005D                           ?_main 0070  
               __end_of___fldiv 0589                 __end_of___flmul 07E0                 __end_of___fltol 1000  
                         _T1CLK 0211                           _T1CON 020E                           _T2CON 028E  
                         _T2HLT 028F                           _T2TMR 028C                           _T2RST 0291  
                         _OSCEN 0891              _PWM4_LoadDutyValue 0006                           _TMR1H 020D  
                         _TMR1L 020C                           _TRISA 0012                           _TRISB 0013  
                         _TRISC 0014                 __end_of_avanzar 00D8             ?_PWM4_LoadDutyValue 0070  
__size_of_InicializacionPuertos 0037                           status 0003   __end_of_InicializacionPuertos 0F8B  
                         wtemp0 007E                 __initialization 07E0                    __end_of_main 0055  
          ??_PWM4_LoadDutyValue 0072                  ??_giro_derecha 0074                          ??_main 0062  
                        _ANSELA 1F38                          _ANSELB 1F43                          _ANSELC 1F4E  
                        _T1GATE 0210                          _T1GCON 020F                          _RA1PPS 1F11  
                        _RC3PPS 1F23                          _ODCONA 1F3A                          _ODCONB 1F45  
                        _ODCONC 1F50                          _INLVLA 1F3C                          _INLVLB 1F47  
                        _INLVLC 1F52                          _OSCFRQ 0893                          _TMR1IF 386D  
                        _TMR1ON 1070               ?_sensor_izquierdo 0070                          _TRISA1 0091  
                        _TRISA2 0092                          _TRISA4 0094                          _TRISC0 00A0  
                        _TRISA5 0095                          _TRISC1 00A1                          _TRISB4 009C  
                        _TRISB5 009D                          _TRISC3 00A3                          _TRISB6 009E  
                        _TRISC4 00A4                          _TRISC5 00A5                          _TRISB7 009F  
                        _TRISC6 00A6                          _TRISC7 00A7     __size_of_InicializacionPWM3 0008  
   __size_of_InicializacionPWM4 0008                __end_of___xxtofl 03D5              ??_sensor_izquierdo 005F  
   __size_of_PWM3_LoadDutyValue 0016                       ??___fldiv 0042                       ??___flmul 0028  
                     ??___fltol 0058                    ?_movimientos 0070                       ??_avanzar 0074  
            __size_of__Umul8_16 0023            _InicializacionTimer2 0ED5                    ___xxtofl@arg 007A  
                  ___xxtofl@exp 0079                    ___xxtofl@val 0070         __end_of__initialization 07FD  
                    ___fltol@f1 0054                  __pcstackCOMMON 0070                  _giro_izquierda 0F15  
                  __pidataBANK1 0EAD     PWM4_LoadDutyValue@dutyValue 0070              _distanciaizquierda 0069  
         ?_InicializacionTimer2 0070              __size_of_detenerse 0009                      __pbssBANK0 0063  
                    __pbssBANK1 00A0            __end_of_giro_derecha 0F15          __end_of_giro_izquierda 0F31  
             __end_of__Umul8_16 0F54                      __pmaintext 001C           __end_of_sensor_centro 01FA  
                     ?___xxtofl 0070                         _OSCTUNE 0892                         _PWM3DCH 0315  
                       _PWM3DCL 0314                         _PWM4DCH 0319                         _PWM4DCL 0318  
                       _PWM3CON 0316                         _PWM4CON 031A                         _SLRCONA 1F3B  
                       _SLRCONB 1F46                         _SLRCONC 1F51                      _conteo_cen 0065  
                    _conteo_der 00A2                      _conteo_izq 0063               __end_of_detenerse 0ED5  
               ?_giro_izquierda 0070                         ___fldiv 03D5                         ___flmul 0589  
                       ___fltol 0F8B       avanzar@dutyCycleIzquierda 0075                         __ptext1 01FA  
                       __ptext2 028E                         __ptext3 0166                         __ptext4 0329  
                       __ptext5 0F8B                         __ptext6 0589                         __ptext7 0F31  
                       __ptext8 03D5                         __ptext9 00D8          ??_InicializacionTimer2 0070  
                       _avanzar 0055            __size_of_movimientos 008E           _OSCILLATOR_Initialize 0EB1  
                    ??___xxtofl 0074                         clrloop0 0EB7            end_of_initialization 07FD  
       __size_of_sensor_derecho 009B           _InicializacionPuertos 0F54     __size_of_PWM4_LoadDutyValue 0016  
     __size_of_sensor_izquierdo 0094                       _PORTBbits 000D                       _PORTCbits 000E  
                 ___xxtofl@sign 0078           __size_of_giro_derecha 001C                     ___fldiv@grs 004E  
                   ___fldiv@rem 0047      __end_of_InicializacionPWM3 0EC4      __end_of_InicializacionPWM4 0ECC  
                   ___flmul@grs 002E      __end_of_PWM3_LoadDutyValue 0EF9                    _giro_derecha 0EF9  
        ?_OSCILLATOR_Initialize 0070             start_initialization 07E0          ?_InicializacionPuertos 0070  
                     __Umul8_16 0F31                     __pdataBANK1 00A4                       ___fldiv@a 003A  
                     ___fldiv@b 003E                       ___flmul@a 0024                       ___flmul@b 0020  
                     ___latbits 0001                   __pcstackBANK0 0020               __size_of___xxtofl 00AC  
              ??_giro_izquierda 0074                  _sensor_derecho 028E                        ?___fldiv 003A  
                      ?___flmul 0020                       _detenerse 0ECC                        ?___fltol 0054  
                    ?__Umul8_16 0070                _sensor_izquierdo 01FA                _dutyCycleDerecha 00A4  
                      ?_avanzar 0070                        _T2CLKCON 0290          __end_of_sensor_derecho 0329  
                      _LATAbits 0018                        _LATBbits 0019                        _LATCbits 001A  
                     clear_ram0 0EB6          __size_of_sensor_centro 0094                        _PIR1bits 070D  
                    ?_detenerse 0070                   ??_movimientos 0079   __size_of_InicializacionTimer2 000E  
               ?_sensor_derecho 0070      __end_of_PWM4_LoadDutyValue 001C                _distanciaderecha 0067  
            _InicializacionPWM3 0EBC              _InicializacionPWM4 0EC4         ??_OSCILLATOR_Initialize 0070  
                   ??__Umul8_16 0072                __size_of___fldiv 01B4                __size_of___flmul 0257  
              __size_of___fltol 0075                _distanciafrontal 006B              _dutyCycleIzquierda 00A6  
           ?_InicializacionPWM3 0070             ?_InicializacionPWM4 0070              _PWM3_LoadDutyValue 0EE3  
              __size_of_avanzar 0083                   _sensor_centro 0166                        ___xxtofl 0329  
           __end_of_movimientos 0166                        __ptext10 0F15                        __ptext11 0EF9  
                      __ptext20 0EBC                        __ptext12 0ECC                        __ptext13 0055  
                      __ptext14 0006                        __ptext15 0EE3                        __ptext16 0EB1  
                      __ptext17 0ED5                        __ptext18 0F54                        __ptext19 0EC4  
           ?_PWM3_LoadDutyValue 0070         ??_InicializacionPuertos 0070            ??_InicializacionPWM3 0070  
          ??_InicializacionPWM4 0070                   __size_of_main 0039            ??_PWM3_LoadDutyValue 0072  
                   ??_detenerse 0070                  ?_sensor_centro 0070        __end_of_sensor_izquierdo 028E  
       avanzar@dutyCycleDerecha 0077     PWM3_LoadDutyValue@dutyValue 0070                     _movimientos 00D8  
        __Umul8_16@multiplicand 0070            __Umul8_16@multiplier 0078               __Umul8_16@product 0074  
